******************************************************************************
                  TI ARM Linker PC v5.2.6                      
******************************************************************************
>> Linked Mon Apr 04 13:17:10 2022

OUTPUT FILE NAME:   <sensortag_ysu1stk_app.out>
ENTRY POINT SYMBOL: "ResetISR"  address: 000071e1


MEMORY CONFIGURATION

         name            origin    length      used     unused   attr    fill
----------------------  --------  ---------  --------  --------  ----  --------
  FLASH                 00000000   0000e000  0000aaf8  00003508  R  X
  FLASH_LAST_PAGE       0001f000   00001000  00000058  00000fa8  R  X
  SRAM                  20000000   00004348  0000309a  000012ae  RW X


SEGMENT ALLOCATION MAP

run origin  load origin   length   init length attrs members
----------  ----------- ---------- ----------- ----- -------
00000000    00000000    0000ab00   0000ab00    r-x
  00000000    00000000    0000003c   0000003c    r-- .resetVecs
  0000003c    0000003c    00000fc4   00000fc4    r-x .text.1
  00001000    00001000    0000003c   0000003c    r-- .const:ti_sysbios_knl_Task_Object__PARAMS__C
  0000103c    0000103c    00000034   00000034    r-- .const:ti_sysbios_knl_Mailbox_Object__PARAMS__C
  00001070    00001070    00000030   00000030    r-- .const:ti_sysbios_family_arm_m3_Hwi_Object__PARAMS__C
  000010a0    000010a0    0000002c   0000002c    r-- .const:ti_sysbios_hal_Hwi_Object__PARAMS__C
  000010cc    000010cc    00000028   00000028    r-- .const:ti_sysbios_heaps_HeapMem_Module__FXNS__C
  000010f4    000010f4    00000028   00000028    r-- .const:ti_sysbios_knl_Swi_Object__PARAMS__C
  0000111c    0000111c    00000024   00000024    r-- .const:ti_sysbios_gates_GateHwi_Module__FXNS__C
  00001140    00001140    00000024   00000024    r-- .const:ti_sysbios_gates_GateMutex_Module__FXNS__C
  00001164    00001164    00000024   00000024    r-- .const:ti_sysbios_heaps_HeapMem_Object__PARAMS__C
  00001188    00001188    00000024   00000024    r-- .const:ti_sysbios_knl_Clock_Object__PARAMS__C
  000011ac    000011ac    00000024   00000024    r-- .const:ti_sysbios_knl_Semaphore_Object__PARAMS__C
  000011d0    000011d0    00000020   00000020    r-- .const:ti_sysbios_family_arm_m3_Hwi_Object__DESC__C
  000011f0    000011f0    00000020   00000020    r-- .const:ti_sysbios_gates_GateHwi_Object__DESC__C
  00001210    00001210    00000020   00000020    r-- .const:ti_sysbios_gates_GateMutex_Object__DESC__C
  00001230    00001230    00000020   00000020    r-- .const:ti_sysbios_hal_Hwi_Object__DESC__C
  00001250    00001250    00000020   00000020    r-- .const:ti_sysbios_heaps_HeapMem_Object__DESC__C
  00001270    00001270    00000020   00000020    r-- .const:ti_sysbios_knl_Clock_Object__DESC__C
  00001290    00001290    00000020   00000020    r-- .const:ti_sysbios_knl_Mailbox_Object__DESC__C
  000012b0    000012b0    00000020   00000020    r-- .const:ti_sysbios_knl_Queue_Object__DESC__C
  000012d0    000012d0    00000020   00000020    r-- .const:ti_sysbios_knl_Semaphore_Object__DESC__C
  000012f0    000012f0    00000020   00000020    r-- .const:ti_sysbios_knl_Swi_Object__DESC__C
  00001310    00001310    00000020   00000020    r-- .const:ti_sysbios_knl_Task_Object__DESC__C
  00001330    00001330    00000018   00000018    r-- .const:ti_sysbios_gates_GateHwi_Object__PARAMS__C
  00001348    00001348    00000018   00000018    r-- .const:ti_sysbios_gates_GateMutex_Object__PARAMS__C
  00001360    00001360    00000018   00000018    r-- .const:ti_sysbios_knl_Queue_Object__PARAMS__C
  00001378    00001378    00000008   00000008    r-- .const:ti_sysbios_knl_Idle_funcList__C
  00001380    00001380    00000004   00000004    r-x .text.2
  00001384    00001384    00000004   00000004    r-- .const:ti_sysbios_family_arm_cc26xx_Timer_startupNeeded__C
  00001388    00001388    00000004   00000004    r-- .const:ti_sysbios_family_arm_m3_Hwi_E_alreadyDefined__C
  0000138c    0000138c    00000004   00000004    r-- .const:ti_sysbios_family_arm_m3_Hwi_E_hwiLimitExceeded__C
  00001390    00001390    00000004   00000004    r-- .const:ti_sysbios_family_arm_m3_Hwi_NUM_INTERRUPTS__C
  00001394    00001394    00000004   00000004    r-- .const:ti_sysbios_family_arm_m3_Hwi_Object__count__C
  00001398    00001398    00000004   00000004    r-- .const:ti_sysbios_family_arm_m3_Hwi_Object__table__C
  0000139c    0000139c    00000004   00000004    r-- .const:ti_sysbios_family_arm_m3_Hwi_ccr__C
  000013a0    000013a0    00000004   00000004    r-- .const:ti_sysbios_family_arm_m3_Hwi_excHandlerFunc__C
  000013a4    000013a4    00000004   00000004    r-- .const:ti_sysbios_family_arm_m3_Hwi_nullIsrFunc__C
  000013a8    000013a8    00000004   00000004    r-- .const:ti_sysbios_family_arm_m3_Hwi_numSparseInterrupts__C
  000013ac    000013ac    00000004   00000004    r-- .const:ti_sysbios_family_arm_m3_Hwi_priGroup__C
  000013b0    000013b0    00000004   00000004    r-- .const:ti_sysbios_family_arm_m3_TaskSupport_stackAlignment__C
  000013b4    000013b4    00000004   00000004    r-- .const:ti_sysbios_heaps_HeapMem_E_memory__C
  000013b8    000013b8    00000004   00000004    r-- .const:ti_sysbios_heaps_HeapMem_Module__gateObj__C
  000013bc    000013bc    00000004   00000004    r-- .const:ti_sysbios_heaps_HeapMem_Object__count__C
  000013c0    000013c0    00000004   00000004    r-- .const:ti_sysbios_heaps_HeapMem_Object__table__C
  000013c4    000013c4    00000004   00000004    r-- .const:ti_sysbios_heaps_HeapMem_reqAlign__C
  000013c8    000013c8    00000004   00000004    r-- .const:ti_sysbios_knl_Clock_serviceMargin__C
  000013cc    000013cc    00000004   00000004    r-- .const:ti_sysbios_knl_Mailbox_Object__count__C
  000013d0    000013d0    00000004   00000004    r-- .const:ti_sysbios_knl_Mailbox_Object__table__C
  000013d4    000013d4    00000004   00000004    r-- .const:ti_sysbios_knl_Mailbox_maxTypeAlign__C
  000013d8    000013d8    00000004   00000004    r-- .const:ti_sysbios_knl_Queue_Object__count__C
  000013dc    000013dc    00000004   00000004    r-- .const:ti_sysbios_knl_Queue_Object__table__C
  000013e0    000013e0    00000004   00000004    r-- .const:ti_sysbios_knl_Swi_Object__count__C
  000013e4    000013e4    00000004   00000004    r-- .const:ti_sysbios_knl_Swi_Object__table__C
  000013e8    000013e8    00000004   00000004    r-- .const:ti_sysbios_knl_Swi_numPriorities__C
  000013ec    000013ec    00000004   00000004    r-- .const:ti_sysbios_knl_Task_Object__count__C
  000013f0    000013f0    00000004   00000004    r-- .const:ti_sysbios_knl_Task_Object__table__C
  000013f4    000013f4    00000004   00000004    r-- .const:ti_sysbios_knl_Task_allBlockedFunc__C
  000013f8    000013f8    00000004   00000004    r-- .const:ti_sysbios_knl_Task_defaultStackHeap__C
  000013fc    000013fc    00000004   00000004    r-- .const:ti_sysbios_knl_Task_defaultStackSize__C
  00001400    00001400    00000004   00000004    r-- .const:ti_sysbios_knl_Task_numConstructedTasks__C
  00001404    00001404    00000002   00000002    r-x .text.3
  00001406    00001406    00000002   00000002    r-- .const:ti_sysbios_family_arm_cc26xx_Timer_Module__id__C
  00001408    00001408    00000002   00000002    r-- .const:ti_sysbios_family_arm_cc26xx_TimestampProvider_useClockTimer__C
  0000140a    0000140a    00000002   00000002    r-- .const:ti_sysbios_family_arm_m3_Hwi_Module__id__C
  0000140c    0000140c    00000002   00000002    r-- .const:ti_sysbios_gates_GateHwi_Module__id__C
  0000140e    0000140e    00000002   00000002    r-- .const:ti_sysbios_gates_GateMutex_Module__id__C
  00001410    00001410    00000002   00000002    r-- .const:ti_sysbios_heaps_HeapMem_Module__id__C
  00001412    00001412    00000002   00000002    r-- .const:ti_sysbios_knl_Task_initStackFlag__C
  00001414    00001414    00000001   00000001    r-- .const:ti_sysbios_knl_Clock_tickMode__C
  00001418    00001418    00000008   00000008    r-- .const:xdc_runtime_Startup_firstFxns__C
  00001420    00001420    00000008   00000008    r-- .const:xdc_runtime_Startup_lastFxns__C
  00001428    00001428    00000004   00000004    r-- .const:xdc_runtime_Assert_E_assertFailed__C
  0000142c    0000142c    00000004   00000004    r-- .const:xdc_runtime_Error_E_memory__C
  00001430    00001430    00000004   00000004    r-- .const:xdc_runtime_Error_policyFxn__C
  00001434    00001434    00000004   00000004    r-- .const:xdc_runtime_IGateProvider_Interface__BASE__C
  00001438    00001438    00000004   00000004    r-- .const:xdc_runtime_IHeap_Interface__BASE__C
  0000143c    0000143c    00000004   00000004    r-- .const:xdc_runtime_IModule_Interface__BASE__C
  00001440    00001440    00000004   00000004    r-- .const:xdc_runtime_Main_Module__diagsEnabled__C
  00001444    00001444    00000004   00000004    r-- .const:xdc_runtime_Main_Module__diagsIncluded__C
  00001448    00001448    00000004   00000004    r-- .const:xdc_runtime_Main_Module__diagsMask__C
  0000144c    0000144c    00000004   00000004    r-- .const:xdc_runtime_Memory_defaultHeapInstance__C
  00001450    00001450    00000004   00000004    r-- .const:xdc_runtime_Startup_execImpl__C
  00001454    00001454    00000004   00000004    r-- .const:xdc_runtime_Startup_maxPasses__C
  00001458    00001458    00000004   00000004    r-- .const:xdc_runtime_Startup_sfxnRts__C
  0000145c    0000145c    00000004   00000004    r-- .const:xdc_runtime_Startup_sfxnTab__C
  00001460    00001460    00000004   00000004    r-- .const:xdc_runtime_Startup_startModsFxn__C
  00001464    00001464    00000004   00000004    r-- .const:xdc_runtime_SysCallback_abortFxn__C
  00001468    00001468    00000004   00000004    r-- .const:xdc_runtime_SysCallback_exitFxn__C
  0000146c    0000146c    00000004   00000004    r-- .const:xdc_runtime_System_abortFxn__C
  00001470    00001470    00000004   00000004    r-- .const:xdc_runtime_System_exitFxn__C
  00001474    00001474    00000004   00000004    r-- .const:xdc_runtime_System_maxAtexitHandlers__C
  00001478    00001478    00000004   00000004    r-- .const:xdc_runtime_Text_charTab__C
  0000147c    0000147c    00000004   00000004    r-- .const:xdc_runtime_Text_nameEmpty__C
  00001480    00001480    00000004   00000004    r-- .const:xdc_runtime_Text_nameStatic__C
  00001484    00001484    00000004   00000004    r-- .const:xdc_runtime_Text_nameUnknown__C
  00001488    00001488    00000002   00000002    r-- .const:xdc_runtime_Main_Module__id__C
  0000148a    0000148a    00000002   00000002    r-- .const:xdc_runtime_Memory_Module__id__C
  0000148c    0000148c    00000002   00000002    r-- .const:xdc_runtime_Text_charCnt__C
  0000148e    0000148e    00000002   00000002    r-- .const:xdc_runtime_Text_isLoaded__C
  00001490    00001490    00000001   00000001    r-- .const:xdc_runtime_Error_policy__C
  00001494    00001494    00000004   00000004    r-- .const:ti_sysbios_rom_ROM_AONRTCChannelEnable
  00001498    00001498    00000004   00000004    r-- .const:ti_sysbios_rom_ROM_AONRTCCompareValueSet
  0000149c    0000149c    00000004   00000004    r-- .const:ti_sysbios_rom_ROM_AONRTCCurrentCompareValueGet
  000014a0    000014a0    00000004   00000004    r-- .const:ti_sysbios_rom_ROM_AONRTCEventClear
  000014a4    000014a4    00000004   00000004    r-- .const:ti_sysbios_rom_ROM_ti_sysbios_family_arm_cc26xx_Timer_getCount64__E
  000014a8    000014a8    00000004   00000004    r-- .const:ti_sysbios_rom_ROM_ti_sysbios_family_arm_cc26xx_Timer_getCurrentTick__E
  000014ac    000014ac    00000004   00000004    r-- .const:ti_sysbios_rom_ROM_ti_sysbios_family_arm_cc26xx_Timer_getMaxTicks__E
  000014b0    000014b0    00000004   00000004    r-- .const:ti_sysbios_rom_ROM_ti_sysbios_family_arm_cc26xx_Timer_initDevice__I
  000014b4    000014b4    00000004   00000004    r-- .const:ti_sysbios_rom_ROM_ti_sysbios_family_arm_cc26xx_Timer_setNextTick__E
  000014b8    000014b8    00000004   00000004    r-- .const:ti_sysbios_rom_ROM_ti_sysbios_family_arm_cc26xx_Timer_setThreshold__I
  000014bc    000014bc    00000004   00000004    r-- .const:ti_sysbios_rom_ROM_ti_sysbios_family_arm_cc26xx_Timer_start__E
  000014c0    000014c0    00000004   00000004    r-- .const:ti_sysbios_rom_ROM_ti_sysbios_family_arm_cc26xx_TimestampProvider_get32__E
  000014c4    000014c4    00000004   00000004    r-- .const:ti_sysbios_rom_ROM_xdc_runtime_Startup_getState__I
  000014c8    000014c8    00000004   00000004    r-- .const:ti_sysbios_rom_ROM_xdc_runtime_System_SupportProxy_abort__E
  000014cc    000014cc    00000004   00000004    r-- .const:ti_sysbios_rom_ROM_xdc_runtime_System_SupportProxy_exit__E
  000014d0    000014d0    00000004   00000004    r-- .const:ti_sysbios_gates_GateMutex_Instance_State_sem__O
  000014d4    000014d4    00000004   00000004    r-- .const:ti_sysbios_knl_Clock_Module_State_clockQ__O
  000014d8    000014d8    00000004   00000004    r-- .const:ti_sysbios_knl_Mailbox_Instance_State_dataQue__O
  000014dc    000014dc    00000004   00000004    r-- .const:ti_sysbios_knl_Mailbox_Instance_State_dataSem__O
  000014e0    000014e0    00000004   00000004    r-- .const:ti_sysbios_knl_Mailbox_Instance_State_freeQue__O
  000014e4    000014e4    00000004   00000004    r-- .const:ti_sysbios_knl_Mailbox_Instance_State_freeSem__O
  000014e8    000014e8    00000004   00000004    r-- .const:ti_sysbios_knl_Semaphore_Instance_State_pendQ__O
  000014ec    000014ec    00000004   00000004    r-- .const:ti_sysbios_knl_Task_Module_State_inactiveQ__O
  000014f0    000014f0    00008714   00008714    r-x .text.4
  00009c04    00009c04    000005da   000005da    r-- .const
  0000a1e0    0000a1e0    00000920   00000920    r-- .cinit
0001ffa8    0001ffa8    00000058   00000058    r--
  0001ffa8    0001ffa8    00000058   00000058    r-- .ccfg
20000100    20000100    00002bd6   00000000    rw-
  20000100    20000100    00000044   00000000    rw- .data:ti_sysbios_knl_Task_Module__state__V
  20000144    20000144    00000034   00000000    rw- .data:ti_sysbios_family_arm_m3_Hwi_Module__state__V
  20000178    20000178    0000002c   00000000    rw- .data:ti_sysbios_knl_Clock_Module__state__V
  200001a4    200001a4    00000024   00000000    rw- .data:ti_sysbios_BIOS_Module__state__V
  200001c8    200001c8    0000001c   00000000    rw- .data:ti_sysbios_knl_Swi_Module__state__V
  200001e4    200001e4    00000008   00000000    rw- .data:ti_sysbios_family_arm_cc26xx_Timer_Module__state__V
  200001ec    200001ec    00000004   00000000    rw- .data:ti_sysbios_family_arm_cc26xx_TimestampProvider_Module__state__V
  200001f0    200001f0    00000008   00000000    rw- .data:xdc_runtime_Startup_Module__state__V
  200001f8    200001f8    00000008   00000000    rw- .data:xdc_runtime_System_Module__state__V
  20000200    20000200    00000004   00000000    rw- .data:xdc_runtime_Memory_Module__state__V
  20000208    20000208    00001e81   00000000    rw- .data
  20002090    20002090    00000c46   00000000    rw- .bss
20003f48    20003f48    00000400   00000000    rw-
  20003f48    20003f48    00000400   00000000    rw- .stack


SECTION ALLOCATION MAP

 output                                  attributes/
section   page    origin      length       input sections
--------  ----  ----------  ----------   ----------------
.resetVecs 
*          0    00000000    0000003c     
                  00000000    0000003c     app_ble_pem3.oem3 (.resetVecs)

.text.1    0    0000003c    00000fc4     
                  0000003c    00000338     rom_sysbios.aem3 : rom_sysbios.obj (.text:xdc_runtime_System_doPrint__I)
                  00000374    00000310     RFCC26XX_singleMode.obj (.text:fsmActiveState$15)
                  00000684    00000008     (.tramp.ti_sysbios_family_arm_m3_Hwi_disableFxn__E.1)
                  0000068c    00000008     (.tramp.ti_sysbios_family_arm_m3_Hwi_restoreFxn__E.1)
                  00000694    00000008     (.tramp.ti_sysbios_knl_Clock_setTimeout__E.1)
                  0000069c    00000008     (.tramp.ti_sysbios_knl_Clock_start__E.1)
                  000006a4    000002ec     peripheral.obj (.text:gapRole_processGAPMsg$31)
                  00000990    0000023c     peripheral.obj (.text:GAPRole_SetParameter)
                  00000bcc    00000230     driverlib.lib : sys_ctrl.obj (.text:NOROM_SysCtrlSetRechargeBeforePowerDown)
                  00000dfc    000001f4     rtsv7M3_T_le_eabi.lib : ull_div_t2.obj (.text)
                  00000ff0    00000010     RFCC26XX_singleMode.obj (.text:FsmDispatch$15)

.const:ti_sysbios_knl_Task_Object__PARAMS__C 
*          0    00001000    0000003c     
                  00001000    0000003c     app_ble_pem3.oem3 (.const:ti_sysbios_knl_Task_Object__PARAMS__C)

.const:ti_sysbios_knl_Mailbox_Object__PARAMS__C 
*          0    0000103c    00000034     
                  0000103c    00000034     app_ble_pem3.oem3 (.const:ti_sysbios_knl_Mailbox_Object__PARAMS__C)

.const:ti_sysbios_family_arm_m3_Hwi_Object__PARAMS__C 
*          0    00001070    00000030     
                  00001070    00000030     app_ble_pem3.oem3 (.const:ti_sysbios_family_arm_m3_Hwi_Object__PARAMS__C)

.const:ti_sysbios_hal_Hwi_Object__PARAMS__C 
*          0    000010a0    0000002c     
                  000010a0    0000002c     app_ble_pem3.oem3 (.const:ti_sysbios_hal_Hwi_Object__PARAMS__C)

.const:ti_sysbios_heaps_HeapMem_Module__FXNS__C 
*          0    000010cc    00000028     
                  000010cc    00000028     app_ble_pem3.oem3 (.const:ti_sysbios_heaps_HeapMem_Module__FXNS__C)

.const:ti_sysbios_knl_Swi_Object__PARAMS__C 
*          0    000010f4    00000028     
                  000010f4    00000028     app_ble_pem3.oem3 (.const:ti_sysbios_knl_Swi_Object__PARAMS__C)

.const:ti_sysbios_gates_GateHwi_Module__FXNS__C 
*          0    0000111c    00000024     
                  0000111c    00000024     app_ble_pem3.oem3 (.const:ti_sysbios_gates_GateHwi_Module__FXNS__C)

.const:ti_sysbios_gates_GateMutex_Module__FXNS__C 
*          0    00001140    00000024     
                  00001140    00000024     app_ble_pem3.oem3 (.const:ti_sysbios_gates_GateMutex_Module__FXNS__C)

.const:ti_sysbios_heaps_HeapMem_Object__PARAMS__C 
*          0    00001164    00000024     
                  00001164    00000024     app_ble_pem3.oem3 (.const:ti_sysbios_heaps_HeapMem_Object__PARAMS__C)

.const:ti_sysbios_knl_Clock_Object__PARAMS__C 
*          0    00001188    00000024     
                  00001188    00000024     app_ble_pem3.oem3 (.const:ti_sysbios_knl_Clock_Object__PARAMS__C)

.const:ti_sysbios_knl_Semaphore_Object__PARAMS__C 
*          0    000011ac    00000024     
                  000011ac    00000024     app_ble_pem3.oem3 (.const:ti_sysbios_knl_Semaphore_Object__PARAMS__C)

.const:ti_sysbios_family_arm_m3_Hwi_Object__DESC__C 
*          0    000011d0    00000020     
                  000011d0    00000020     app_ble_pem3.oem3 (.const:ti_sysbios_family_arm_m3_Hwi_Object__DESC__C)

.const:ti_sysbios_gates_GateHwi_Object__DESC__C 
*          0    000011f0    00000020     
                  000011f0    00000020     app_ble_pem3.oem3 (.const:ti_sysbios_gates_GateHwi_Object__DESC__C)

.const:ti_sysbios_gates_GateMutex_Object__DESC__C 
*          0    00001210    00000020     
                  00001210    00000020     app_ble_pem3.oem3 (.const:ti_sysbios_gates_GateMutex_Object__DESC__C)

.const:ti_sysbios_hal_Hwi_Object__DESC__C 
*          0    00001230    00000020     
                  00001230    00000020     app_ble_pem3.oem3 (.const:ti_sysbios_hal_Hwi_Object__DESC__C)

.const:ti_sysbios_heaps_HeapMem_Object__DESC__C 
*          0    00001250    00000020     
                  00001250    00000020     app_ble_pem3.oem3 (.const:ti_sysbios_heaps_HeapMem_Object__DESC__C)

.const:ti_sysbios_knl_Clock_Object__DESC__C 
*          0    00001270    00000020     
                  00001270    00000020     app_ble_pem3.oem3 (.const:ti_sysbios_knl_Clock_Object__DESC__C)

.const:ti_sysbios_knl_Mailbox_Object__DESC__C 
*          0    00001290    00000020     
                  00001290    00000020     app_ble_pem3.oem3 (.const:ti_sysbios_knl_Mailbox_Object__DESC__C)

.const:ti_sysbios_knl_Queue_Object__DESC__C 
*          0    000012b0    00000020     
                  000012b0    00000020     app_ble_pem3.oem3 (.const:ti_sysbios_knl_Queue_Object__DESC__C)

.const:ti_sysbios_knl_Semaphore_Object__DESC__C 
*          0    000012d0    00000020     
                  000012d0    00000020     app_ble_pem3.oem3 (.const:ti_sysbios_knl_Semaphore_Object__DESC__C)

.const:ti_sysbios_knl_Swi_Object__DESC__C 
*          0    000012f0    00000020     
                  000012f0    00000020     app_ble_pem3.oem3 (.const:ti_sysbios_knl_Swi_Object__DESC__C)

.const:ti_sysbios_knl_Task_Object__DESC__C 
*          0    00001310    00000020     
                  00001310    00000020     app_ble_pem3.oem3 (.const:ti_sysbios_knl_Task_Object__DESC__C)

.const:ti_sysbios_gates_GateHwi_Object__PARAMS__C 
*          0    00001330    00000018     
                  00001330    00000018     app_ble_pem3.oem3 (.const:ti_sysbios_gates_GateHwi_Object__PARAMS__C)

.const:ti_sysbios_gates_GateMutex_Object__PARAMS__C 
*          0    00001348    00000018     
                  00001348    00000018     app_ble_pem3.oem3 (.const:ti_sysbios_gates_GateMutex_Object__PARAMS__C)

.const:ti_sysbios_knl_Queue_Object__PARAMS__C 
*          0    00001360    00000018     
                  00001360    00000018     app_ble_pem3.oem3 (.const:ti_sysbios_knl_Queue_Object__PARAMS__C)

.const:ti_sysbios_knl_Idle_funcList__C 
*          0    00001378    00000008     
                  00001378    00000008     app_ble_pem3.oem3 (.const:ti_sysbios_knl_Idle_funcList__C)

.text.2    0    00001380    00000004     
                  00001380    00000004     icall_api.obj (.text:GATTServApp_AddService)

.const:ti_sysbios_family_arm_cc26xx_Timer_startupNeeded__C 
*          0    00001384    00000004     
                  00001384    00000004     app_ble_pem3.oem3 (.const:ti_sysbios_family_arm_cc26xx_Timer_startupNeeded__C)

.const:ti_sysbios_family_arm_m3_Hwi_E_alreadyDefined__C 
*          0    00001388    00000004     
                  00001388    00000004     app_ble_pem3.oem3 (.const:ti_sysbios_family_arm_m3_Hwi_E_alreadyDefined__C)

.const:ti_sysbios_family_arm_m3_Hwi_E_hwiLimitExceeded__C 
*          0    0000138c    00000004     
                  0000138c    00000004     app_ble_pem3.oem3 (.const:ti_sysbios_family_arm_m3_Hwi_E_hwiLimitExceeded__C)

.const:ti_sysbios_family_arm_m3_Hwi_NUM_INTERRUPTS__C 
*          0    00001390    00000004     
                  00001390    00000004     app_ble_pem3.oem3 (.const:ti_sysbios_family_arm_m3_Hwi_NUM_INTERRUPTS__C)

.const:ti_sysbios_family_arm_m3_Hwi_Object__count__C 
*          0    00001394    00000004     
                  00001394    00000004     app_ble_pem3.oem3 (.const:ti_sysbios_family_arm_m3_Hwi_Object__count__C)

.const:ti_sysbios_family_arm_m3_Hwi_Object__table__C 
*          0    00001398    00000004     
                  00001398    00000004     app_ble_pem3.oem3 (.const:ti_sysbios_family_arm_m3_Hwi_Object__table__C)

.const:ti_sysbios_family_arm_m3_Hwi_ccr__C 
*          0    0000139c    00000004     
                  0000139c    00000004     app_ble_pem3.oem3 (.const:ti_sysbios_family_arm_m3_Hwi_ccr__C)

.const:ti_sysbios_family_arm_m3_Hwi_excHandlerFunc__C 
*          0    000013a0    00000004     
                  000013a0    00000004     app_ble_pem3.oem3 (.const:ti_sysbios_family_arm_m3_Hwi_excHandlerFunc__C)

.const:ti_sysbios_family_arm_m3_Hwi_nullIsrFunc__C 
*          0    000013a4    00000004     
                  000013a4    00000004     app_ble_pem3.oem3 (.const:ti_sysbios_family_arm_m3_Hwi_nullIsrFunc__C)

.const:ti_sysbios_family_arm_m3_Hwi_numSparseInterrupts__C 
*          0    000013a8    00000004     
                  000013a8    00000004     app_ble_pem3.oem3 (.const:ti_sysbios_family_arm_m3_Hwi_numSparseInterrupts__C)

.const:ti_sysbios_family_arm_m3_Hwi_priGroup__C 
*          0    000013ac    00000004     
                  000013ac    00000004     app_ble_pem3.oem3 (.const:ti_sysbios_family_arm_m3_Hwi_priGroup__C)

.const:ti_sysbios_family_arm_m3_TaskSupport_stackAlignment__C 
*          0    000013b0    00000004     
                  000013b0    00000004     app_ble_pem3.oem3 (.const:ti_sysbios_family_arm_m3_TaskSupport_stackAlignment__C)

.const:ti_sysbios_heaps_HeapMem_E_memory__C 
*          0    000013b4    00000004     
                  000013b4    00000004     app_ble_pem3.oem3 (.const:ti_sysbios_heaps_HeapMem_E_memory__C)

.const:ti_sysbios_heaps_HeapMem_Module__gateObj__C 
*          0    000013b8    00000004     
                  000013b8    00000004     app_ble_pem3.oem3 (.const:ti_sysbios_heaps_HeapMem_Module__gateObj__C)

.const:ti_sysbios_heaps_HeapMem_Object__count__C 
*          0    000013bc    00000004     
                  000013bc    00000004     app_ble_pem3.oem3 (.const:ti_sysbios_heaps_HeapMem_Object__count__C)

.const:ti_sysbios_heaps_HeapMem_Object__table__C 
*          0    000013c0    00000004     
                  000013c0    00000004     app_ble_pem3.oem3 (.const:ti_sysbios_heaps_HeapMem_Object__table__C)

.const:ti_sysbios_heaps_HeapMem_reqAlign__C 
*          0    000013c4    00000004     
                  000013c4    00000004     app_ble_pem3.oem3 (.const:ti_sysbios_heaps_HeapMem_reqAlign__C)

.const:ti_sysbios_knl_Clock_serviceMargin__C 
*          0    000013c8    00000004     
                  000013c8    00000004     app_ble_pem3.oem3 (.const:ti_sysbios_knl_Clock_serviceMargin__C)

.const:ti_sysbios_knl_Mailbox_Object__count__C 
*          0    000013cc    00000004     
                  000013cc    00000004     app_ble_pem3.oem3 (.const:ti_sysbios_knl_Mailbox_Object__count__C)

.const:ti_sysbios_knl_Mailbox_Object__table__C 
*          0    000013d0    00000004     
                  000013d0    00000004     app_ble_pem3.oem3 (.const:ti_sysbios_knl_Mailbox_Object__table__C)

.const:ti_sysbios_knl_Mailbox_maxTypeAlign__C 
*          0    000013d4    00000004     
                  000013d4    00000004     app_ble_pem3.oem3 (.const:ti_sysbios_knl_Mailbox_maxTypeAlign__C)

.const:ti_sysbios_knl_Queue_Object__count__C 
*          0    000013d8    00000004     
                  000013d8    00000004     app_ble_pem3.oem3 (.const:ti_sysbios_knl_Queue_Object__count__C)

.const:ti_sysbios_knl_Queue_Object__table__C 
*          0    000013dc    00000004     
                  000013dc    00000004     app_ble_pem3.oem3 (.const:ti_sysbios_knl_Queue_Object__table__C)

.const:ti_sysbios_knl_Swi_Object__count__C 
*          0    000013e0    00000004     
                  000013e0    00000004     app_ble_pem3.oem3 (.const:ti_sysbios_knl_Swi_Object__count__C)

.const:ti_sysbios_knl_Swi_Object__table__C 
*          0    000013e4    00000004     
                  000013e4    00000004     app_ble_pem3.oem3 (.const:ti_sysbios_knl_Swi_Object__table__C)

.const:ti_sysbios_knl_Swi_numPriorities__C 
*          0    000013e8    00000004     
                  000013e8    00000004     app_ble_pem3.oem3 (.const:ti_sysbios_knl_Swi_numPriorities__C)

.const:ti_sysbios_knl_Task_Object__count__C 
*          0    000013ec    00000004     
                  000013ec    00000004     app_ble_pem3.oem3 (.const:ti_sysbios_knl_Task_Object__count__C)

.const:ti_sysbios_knl_Task_Object__table__C 
*          0    000013f0    00000004     
                  000013f0    00000004     app_ble_pem3.oem3 (.const:ti_sysbios_knl_Task_Object__table__C)

.const:ti_sysbios_knl_Task_allBlockedFunc__C 
*          0    000013f4    00000004     
                  000013f4    00000004     app_ble_pem3.oem3 (.const:ti_sysbios_knl_Task_allBlockedFunc__C)

.const:ti_sysbios_knl_Task_defaultStackHeap__C 
*          0    000013f8    00000004     
                  000013f8    00000004     app_ble_pem3.oem3 (.const:ti_sysbios_knl_Task_defaultStackHeap__C)

.const:ti_sysbios_knl_Task_defaultStackSize__C 
*          0    000013fc    00000004     
                  000013fc    00000004     app_ble_pem3.oem3 (.const:ti_sysbios_knl_Task_defaultStackSize__C)

.const:ti_sysbios_knl_Task_numConstructedTasks__C 
*          0    00001400    00000004     
                  00001400    00000004     app_ble_pem3.oem3 (.const:ti_sysbios_knl_Task_numConstructedTasks__C)

.text.3    0    00001404    00000002     
                  00001404    00000002     ble_user_config.obj (.text:DefaultAssertCback)

.const:ti_sysbios_family_arm_cc26xx_Timer_Module__id__C 
*          0    00001406    00000002     
                  00001406    00000002     app_ble_pem3.oem3 (.const:ti_sysbios_family_arm_cc26xx_Timer_Module__id__C)

.const:ti_sysbios_family_arm_cc26xx_TimestampProvider_useClockTimer__C 
*          0    00001408    00000002     
                  00001408    00000002     app_ble_pem3.oem3 (.const:ti_sysbios_family_arm_cc26xx_TimestampProvider_useClockTimer__C)

.const:ti_sysbios_family_arm_m3_Hwi_Module__id__C 
*          0    0000140a    00000002     
                  0000140a    00000002     app_ble_pem3.oem3 (.const:ti_sysbios_family_arm_m3_Hwi_Module__id__C)

.const:ti_sysbios_gates_GateHwi_Module__id__C 
*          0    0000140c    00000002     
                  0000140c    00000002     app_ble_pem3.oem3 (.const:ti_sysbios_gates_GateHwi_Module__id__C)

.const:ti_sysbios_gates_GateMutex_Module__id__C 
*          0    0000140e    00000002     
                  0000140e    00000002     app_ble_pem3.oem3 (.const:ti_sysbios_gates_GateMutex_Module__id__C)

.const:ti_sysbios_heaps_HeapMem_Module__id__C 
*          0    00001410    00000002     
                  00001410    00000002     app_ble_pem3.oem3 (.const:ti_sysbios_heaps_HeapMem_Module__id__C)

.const:ti_sysbios_knl_Task_initStackFlag__C 
*          0    00001412    00000002     
                  00001412    00000002     app_ble_pem3.oem3 (.const:ti_sysbios_knl_Task_initStackFlag__C)

.const:ti_sysbios_knl_Clock_tickMode__C 
*          0    00001414    00000001     
                  00001414    00000001     app_ble_pem3.oem3 (.const:ti_sysbios_knl_Clock_tickMode__C)

.const:xdc_runtime_Startup_firstFxns__C 
*          0    00001418    00000008     
                  00001418    00000008     app_ble_pem3.oem3 (.const:xdc_runtime_Startup_firstFxns__C)

.const:xdc_runtime_Startup_lastFxns__C 
*          0    00001420    00000008     
                  00001420    00000008     app_ble_pem3.oem3 (.const:xdc_runtime_Startup_lastFxns__C)

.const:xdc_runtime_Assert_E_assertFailed__C 
*          0    00001428    00000004     
                  00001428    00000004     app_ble_pem3.oem3 (.const:xdc_runtime_Assert_E_assertFailed__C)

.const:xdc_runtime_Error_E_memory__C 
*          0    0000142c    00000004     
                  0000142c    00000004     app_ble_pem3.oem3 (.const:xdc_runtime_Error_E_memory__C)

.const:xdc_runtime_Error_policyFxn__C 
*          0    00001430    00000004     
                  00001430    00000004     app_ble_pem3.oem3 (.const:xdc_runtime_Error_policyFxn__C)

.const:xdc_runtime_IGateProvider_Interface__BASE__C 
*          0    00001434    00000004     
                  00001434    00000004     app_ble_pem3.oem3 (.const:xdc_runtime_IGateProvider_Interface__BASE__C)

.const:xdc_runtime_IHeap_Interface__BASE__C 
*          0    00001438    00000004     
                  00001438    00000004     app_ble_pem3.oem3 (.const:xdc_runtime_IHeap_Interface__BASE__C)

.const:xdc_runtime_IModule_Interface__BASE__C 
*          0    0000143c    00000004     
                  0000143c    00000004     app_ble_pem3.oem3 (.const:xdc_runtime_IModule_Interface__BASE__C)

.const:xdc_runtime_Main_Module__diagsEnabled__C 
*          0    00001440    00000004     
                  00001440    00000004     app_ble_pem3.oem3 (.const:xdc_runtime_Main_Module__diagsEnabled__C)

.const:xdc_runtime_Main_Module__diagsIncluded__C 
*          0    00001444    00000004     
                  00001444    00000004     app_ble_pem3.oem3 (.const:xdc_runtime_Main_Module__diagsIncluded__C)

.const:xdc_runtime_Main_Module__diagsMask__C 
*          0    00001448    00000004     
                  00001448    00000004     app_ble_pem3.oem3 (.const:xdc_runtime_Main_Module__diagsMask__C)

.const:xdc_runtime_Memory_defaultHeapInstance__C 
*          0    0000144c    00000004     
                  0000144c    00000004     app_ble_pem3.oem3 (.const:xdc_runtime_Memory_defaultHeapInstance__C)

.const:xdc_runtime_Startup_execImpl__C 
*          0    00001450    00000004     
                  00001450    00000004     app_ble_pem3.oem3 (.const:xdc_runtime_Startup_execImpl__C)

.const:xdc_runtime_Startup_maxPasses__C 
*          0    00001454    00000004     
                  00001454    00000004     app_ble_pem3.oem3 (.const:xdc_runtime_Startup_maxPasses__C)

.const:xdc_runtime_Startup_sfxnRts__C 
*          0    00001458    00000004     
                  00001458    00000004     app_ble_pem3.oem3 (.const:xdc_runtime_Startup_sfxnRts__C)

.const:xdc_runtime_Startup_sfxnTab__C 
*          0    0000145c    00000004     
                  0000145c    00000004     app_ble_pem3.oem3 (.const:xdc_runtime_Startup_sfxnTab__C)

.const:xdc_runtime_Startup_startModsFxn__C 
*          0    00001460    00000004     
                  00001460    00000004     app_ble_pem3.oem3 (.const:xdc_runtime_Startup_startModsFxn__C)

.const:xdc_runtime_SysCallback_abortFxn__C 
*          0    00001464    00000004     
                  00001464    00000004     app_ble_pem3.oem3 (.const:xdc_runtime_SysCallback_abortFxn__C)

.const:xdc_runtime_SysCallback_exitFxn__C 
*          0    00001468    00000004     
                  00001468    00000004     app_ble_pem3.oem3 (.const:xdc_runtime_SysCallback_exitFxn__C)

.const:xdc_runtime_System_abortFxn__C 
*          0    0000146c    00000004     
                  0000146c    00000004     app_ble_pem3.oem3 (.const:xdc_runtime_System_abortFxn__C)

.const:xdc_runtime_System_exitFxn__C 
*          0    00001470    00000004     
                  00001470    00000004     app_ble_pem3.oem3 (.const:xdc_runtime_System_exitFxn__C)

.const:xdc_runtime_System_maxAtexitHandlers__C 
*          0    00001474    00000004     
                  00001474    00000004     app_ble_pem3.oem3 (.const:xdc_runtime_System_maxAtexitHandlers__C)

.const:xdc_runtime_Text_charTab__C 
*          0    00001478    00000004     
                  00001478    00000004     app_ble_pem3.oem3 (.const:xdc_runtime_Text_charTab__C)

.const:xdc_runtime_Text_nameEmpty__C 
*          0    0000147c    00000004     
                  0000147c    00000004     app_ble_pem3.oem3 (.const:xdc_runtime_Text_nameEmpty__C)

.const:xdc_runtime_Text_nameStatic__C 
*          0    00001480    00000004     
                  00001480    00000004     app_ble_pem3.oem3 (.const:xdc_runtime_Text_nameStatic__C)

.const:xdc_runtime_Text_nameUnknown__C 
*          0    00001484    00000004     
                  00001484    00000004     app_ble_pem3.oem3 (.const:xdc_runtime_Text_nameUnknown__C)

.const:xdc_runtime_Main_Module__id__C 
*          0    00001488    00000002     
                  00001488    00000002     app_ble_pem3.oem3 (.const:xdc_runtime_Main_Module__id__C)

.const:xdc_runtime_Memory_Module__id__C 
*          0    0000148a    00000002     
                  0000148a    00000002     app_ble_pem3.oem3 (.const:xdc_runtime_Memory_Module__id__C)

.const:xdc_runtime_Text_charCnt__C 
*          0    0000148c    00000002     
                  0000148c    00000002     app_ble_pem3.oem3 (.const:xdc_runtime_Text_charCnt__C)

.const:xdc_runtime_Text_isLoaded__C 
*          0    0000148e    00000002     
                  0000148e    00000002     app_ble_pem3.oem3 (.const:xdc_runtime_Text_isLoaded__C)

.const:xdc_runtime_Error_policy__C 
*          0    00001490    00000001     
                  00001490    00000001     app_ble_pem3.oem3 (.const:xdc_runtime_Error_policy__C)

.const:ti_sysbios_rom_ROM_AONRTCChannelEnable 
*          0    00001494    00000004     
                  00001494    00000004     app_ble_pem3.oem3 (.const:ti_sysbios_rom_ROM_AONRTCChannelEnable)

.const:ti_sysbios_rom_ROM_AONRTCCompareValueSet 
*          0    00001498    00000004     
                  00001498    00000004     app_ble_pem3.oem3 (.const:ti_sysbios_rom_ROM_AONRTCCompareValueSet)

.const:ti_sysbios_rom_ROM_AONRTCCurrentCompareValueGet 
*          0    0000149c    00000004     
                  0000149c    00000004     app_ble_pem3.oem3 (.const:ti_sysbios_rom_ROM_AONRTCCurrentCompareValueGet)

.const:ti_sysbios_rom_ROM_AONRTCEventClear 
*          0    000014a0    00000004     
                  000014a0    00000004     app_ble_pem3.oem3 (.const:ti_sysbios_rom_ROM_AONRTCEventClear)

.const:ti_sysbios_rom_ROM_ti_sysbios_family_arm_cc26xx_Timer_getCount64__E 
*          0    000014a4    00000004     
                  000014a4    00000004     app_ble_pem3.oem3 (.const:ti_sysbios_rom_ROM_ti_sysbios_family_arm_cc26xx_Timer_getCount64__E)

.const:ti_sysbios_rom_ROM_ti_sysbios_family_arm_cc26xx_Timer_getCurrentTick__E 
*          0    000014a8    00000004     
                  000014a8    00000004     app_ble_pem3.oem3 (.const:ti_sysbios_rom_ROM_ti_sysbios_family_arm_cc26xx_Timer_getCurrentTick__E)

.const:ti_sysbios_rom_ROM_ti_sysbios_family_arm_cc26xx_Timer_getMaxTicks__E 
*          0    000014ac    00000004     
                  000014ac    00000004     app_ble_pem3.oem3 (.const:ti_sysbios_rom_ROM_ti_sysbios_family_arm_cc26xx_Timer_getMaxTicks__E)

.const:ti_sysbios_rom_ROM_ti_sysbios_family_arm_cc26xx_Timer_initDevice__I 
*          0    000014b0    00000004     
                  000014b0    00000004     app_ble_pem3.oem3 (.const:ti_sysbios_rom_ROM_ti_sysbios_family_arm_cc26xx_Timer_initDevice__I)

.const:ti_sysbios_rom_ROM_ti_sysbios_family_arm_cc26xx_Timer_setNextTick__E 
*          0    000014b4    00000004     
                  000014b4    00000004     app_ble_pem3.oem3 (.const:ti_sysbios_rom_ROM_ti_sysbios_family_arm_cc26xx_Timer_setNextTick__E)

.const:ti_sysbios_rom_ROM_ti_sysbios_family_arm_cc26xx_Timer_setThreshold__I 
*          0    000014b8    00000004     
                  000014b8    00000004     app_ble_pem3.oem3 (.const:ti_sysbios_rom_ROM_ti_sysbios_family_arm_cc26xx_Timer_setThreshold__I)

.const:ti_sysbios_rom_ROM_ti_sysbios_family_arm_cc26xx_Timer_start__E 
*          0    000014bc    00000004     
                  000014bc    00000004     app_ble_pem3.oem3 (.const:ti_sysbios_rom_ROM_ti_sysbios_family_arm_cc26xx_Timer_start__E)

.const:ti_sysbios_rom_ROM_ti_sysbios_family_arm_cc26xx_TimestampProvider_get32__E 
*          0    000014c0    00000004     
                  000014c0    00000004     app_ble_pem3.oem3 (.const:ti_sysbios_rom_ROM_ti_sysbios_family_arm_cc26xx_TimestampProvider_get32__E)

.const:ti_sysbios_rom_ROM_xdc_runtime_Startup_getState__I 
*          0    000014c4    00000004     
                  000014c4    00000004     app_ble_pem3.oem3 (.const:ti_sysbios_rom_ROM_xdc_runtime_Startup_getState__I)

.const:ti_sysbios_rom_ROM_xdc_runtime_System_SupportProxy_abort__E 
*          0    000014c8    00000004     
                  000014c8    00000004     app_ble_pem3.oem3 (.const:ti_sysbios_rom_ROM_xdc_runtime_System_SupportProxy_abort__E)

.const:ti_sysbios_rom_ROM_xdc_runtime_System_SupportProxy_exit__E 
*          0    000014cc    00000004     
                  000014cc    00000004     app_ble_pem3.oem3 (.const:ti_sysbios_rom_ROM_xdc_runtime_System_SupportProxy_exit__E)

.const:ti_sysbios_gates_GateMutex_Instance_State_sem__O 
*          0    000014d0    00000004     
                  000014d0    00000004     app_ble_pem3.oem3 (.const:ti_sysbios_gates_GateMutex_Instance_State_sem__O)

.const:ti_sysbios_knl_Clock_Module_State_clockQ__O 
*          0    000014d4    00000004     
                  000014d4    00000004     app_ble_pem3.oem3 (.const:ti_sysbios_knl_Clock_Module_State_clockQ__O)

.const:ti_sysbios_knl_Mailbox_Instance_State_dataQue__O 
*          0    000014d8    00000004     
                  000014d8    00000004     app_ble_pem3.oem3 (.const:ti_sysbios_knl_Mailbox_Instance_State_dataQue__O)

.const:ti_sysbios_knl_Mailbox_Instance_State_dataSem__O 
*          0    000014dc    00000004     
                  000014dc    00000004     app_ble_pem3.oem3 (.const:ti_sysbios_knl_Mailbox_Instance_State_dataSem__O)

.const:ti_sysbios_knl_Mailbox_Instance_State_freeQue__O 
*          0    000014e0    00000004     
                  000014e0    00000004     app_ble_pem3.oem3 (.const:ti_sysbios_knl_Mailbox_Instance_State_freeQue__O)

.const:ti_sysbios_knl_Mailbox_Instance_State_freeSem__O 
*          0    000014e4    00000004     
                  000014e4    00000004     app_ble_pem3.oem3 (.const:ti_sysbios_knl_Mailbox_Instance_State_freeSem__O)

.const:ti_sysbios_knl_Semaphore_Instance_State_pendQ__O 
*          0    000014e8    00000004     
                  000014e8    00000004     app_ble_pem3.oem3 (.const:ti_sysbios_knl_Semaphore_Instance_State_pendQ__O)

.const:ti_sysbios_knl_Task_Module_State_inactiveQ__O 
*          0    000014ec    00000004     
                  000014ec    00000004     app_ble_pem3.oem3 (.const:ti_sysbios_knl_Task_Module_State_inactiveQ__O)

.text.4    0    000014f0    00008714     
                  000014f0    00000228     drivers_cc13xxware.aem3 : PowerCC26XX.oem3 (.text:Power_sleep)
                  00001718    0000021e     rtsv7M3_T_le_eabi.lib : ll_div_t2.obj (.text)
                  00001936    00000002     RFCC26XX_singleMode.obj (.text:defaultErrCb$15)
                  00001938    000001ec     drivers_cc13xxware.aem3 : PowerCC26XX_calibrateRCOSC.oem3 (.text:calibrateRcoscHf1)
                  00001b24    000001c1     adxl_sensor.obj (.text:ADXL_read)
                  00001ce5    00000001     --HOLE-- [fill = 0]
                  00001ce6    00000002     drivers_cc13xxware.aem3 : PowerCC26XX.oem3 (.text:emptyClockFunc)
                  00001ce8    000001a8     PINCC26XX.obj (.text:PIN_init)
                  00001e90    000001a8     RFCC26XX_singleMode.obj (.text:abortCmd$15)
                  00002038    000001a0     drivers_cc13xxware.aem3 : PowerCC26XX_calibrateRCOSC.oem3 (.text:PowerCC26XX_doCalibrate)
                  000021d8    00000190     ysu_sensortag.obj (.text:SensorTag_init$38)
                  00002368    0000018e     BME688_api.obj (.text:read_field_data$6)
                  000024f6    00000002     rtsv7M3_T_le_eabi.lib : i_div0.obj (.text)
                  000024f8    00000170     RFCC26XX_singleMode.obj (.text:RF_postCmd)
                  00002668    00000154     BME688_api.obj (.text:get_calib_data$6)
                  000027bc    00000144     BME688_api.obj (.text:bme68x_set_conf)
                  00002900    00000130     driverlib.lib : setup.obj (.text:NOROM_SetupAfterColdResetWakeupFromShutDownCfg3)
                  00002a30    0000012c     drivers_cc13xxware.aem3 : PowerCC26XX.oem3 (.text:Power_init)
                  00002b5c    00000128     RFCC26XX_singleMode.obj (.text:fsmSetupState$15)
                  00002c84    00000120     peripheral.obj (.text:GAPRole_GetParameter)
                  00002da4    00000110     RFCC26XX_singleMode.obj (.text:hwiFxnCpe0Active$15)
                  00002eb4    000000fc     peripheral.obj (.text:gapRole_taskFxn$31)
                  00002fb0    000000f8     drivers_cc13xxware.aem3 : I2CCC26XX.oem3 (.text:I2CCC26XX_open)
                  000030a8    000000f8     app_ble_pem3.oem3 (.text:xdc_runtime_System_printfExtend__I)
                  000031a0    000000ec     icall.obj (.text:ICall_primWaitMatch$23)
                  0000328c    000000ec     driverlib.lib : setup.obj (.text:NOROM_SetupAfterColdResetWakeupFromShutDownCfg2)
                  00003378    000000ec     RFCC26XX_singleMode.obj (.text:rf_init$15)
                  00003464    000000e8     drivers_cc13xxware.aem3 : I2CCC26XX.oem3 (.text:I2CCC26XX_hwiFxn)
                  0000354c    000000d8     driverlib.lib : rfc.obj (.text:NOROM_RFCRTrim)
                  00003624    000000d4                   : rfc.obj (.text:NOROM_RFCRfTrimRead)
                  000036f8    000000d4     drivers_cc13xxware.aem3 : PowerCC26XX.oem3 (.text:Power_releaseDependency)
                  000037cc    000000d0                             : PowerCC26XX.oem3 (.text:Power_setDependency)
                  0000389c    000000cc     driverlib.lib : setup.obj (.text:TrimAfterColdResetWakeupFromShutDown)
                  00003968    000000c8     RFCC26XX_singleMode.obj (.text:fsmPowerUpState$15)
                  00003a30    000000c8     bme688.obj (.text:sensorTaskFxn$8)
                  00003af8    000000c4     bme688service.obj (.text:sensor_WriteAttrCB$7)
                  00003bbc    000000c4     RFCC26XX_singleMode.obj (.text:swiFxnHw$15)
                  00003c80    000000c2     drivers_cc13xxware.aem3 : I2CCC26XX.oem3 (.text:I2CCC26XX_transfer)
                  00003d42    00000002     rtsv7M3_T_le_eabi.lib : l_div0.obj (.text)
                  00003d44    000000c0     RFCC26XX_singleMode.obj (.text:RF_open)
                  00003e04    000000bc     power_cc13xx_tirtos.aem3 : PowerCC26XX_tirtos.oem3 (.text:PowerCC26XX_standbyPolicy)
                  00003ec0    000000b8     adxl_service.obj (.text:sensor_WriteAttrCB$2)
                  00003f78    000000b4     PINCC26XX.obj (.text:PINCC26XX_setIoCfg$14)
                  0000402c    000000b0     BME688_api.obj (.text:calc_pressure$6)
                  000040dc    000000b0     devinfoservice.obj (.text:devInfo_ReadAttrCB$28)
                  0000418c    000000ac     BME688_api.obj (.text:calc_gas_resistance_low$6)
                  00004238    000000a8     BME688_api.obj (.text:bme68x_set_heatr_conf)
                  000042e0    000000a4     devinfoservice.obj (.text:DevInfo_SetParameter)
                  00004384    000000a4     driverlib.lib : setup.obj (.text:NOROM_SetupTrimDevice)
                  00004428    000000a4     ccservice.obj (.text:ccService_WriteAttrCB$36)
                  000044cc    000000a0     driverlib.lib : setup.obj (.text:NOROM_SetupAfterColdResetWakeupFromShutDownCfg1)
                  0000456c    000000a0     auto_init.aem3 : auto_init.oem3 (.text)
                  0000460c    000000a0     BME688_api.obj (.text:bme68x_set_regs)
                  000046ac    000000a0     peripheral.obj (.text:gapRole_init$31)
                  0000474c    000000a0     rom_sysbios.aem3 : rom_sysbios.obj (.text:ti_sysbios_knl_Task_setPri__E)
                  000047ec    0000009c     ysu_sensortag.obj (.text:SensorTag_processStateChangeEvt$38)
                  00004888    0000009c     rtsv7M3_T_le_eabi.lib : memcpy_t2.obj (.text)
                  00004924    0000009a     rom_sysbios.aem3 : rom_sysbios.obj (.text:xdc_runtime_Text_putSite__E)
                  000049be    00000002                      : rom_sysbios.obj (.text:ti_sysbios_BIOS_linkedWithIncorrectBootLibrary__E)
                  000049c0    00000098     PINCC26XX.obj (.text:PIN_open)
                  00004a58    00000098     rom_sysbios.aem3 : rom_sysbios.obj (.text:ti_sysbios_knl_Clock_workFuncDynamic__E)
                  00004af0    00000094     gattservapp_util.obj (.text:GATTServApp_ProcessCharCfg)
                  00004b84    00000094     rom_sysbios.aem3 : rom_sysbios.obj (.text:xdc_runtime_Text_putMod__E)
                  00004c18    00000090     drivers_cc13xxware.aem3 : I2CCC26XX.oem3 (.text:I2CCC26XX_cancel)
                  00004ca8    00000090     BME688_api.obj (.text:bme68x_set_op_mode)
                  00004d38    00000090     drivers_cc13xxware.aem3 : PowerCC26XX.oem3 (.text:switchXOSCHFclockFunc)
                  00004dc8    0000008c                             : I2CCC26XX.oem3 (.text:I2CCC26XX_primeTransfer)
                  00004e54    0000008c     driverlib.lib : osc.obj (.text:NOROM_OSCHF_GetStartupTime)
                  00004ee0    0000008c     BME688_api.obj (.text:calc_humidity$6)
                  00004f6c    0000008c     drivers_cc13xxware.aem3 : PowerCC26XX.oem3 (.text:disableLFClockQualifiers)
                  00004ff8    00000088     ysu_sensortag.obj (.text:SensorTag_taskFxn$38)
                  00005080    00000088     drivers_cc13xxware.aem3 : PowerCC26XX_calibrateRCOSC.oem3 (.text:calibrateRcoscHf2)
                  00005108    00000084     icall.obj (.text:ICall_heapMalloc)
                  0000518c    00000084     icall.obj (.text:ICall_primSetTimer$23)
                  00005210    00000084     TRNGCC26XX.obj (.text:TRNGCC26XX_getNumber)
                  00005294    00000084     bme688_driver.obj (.text:bme68x_i2c_write)
                  00005318    00000080     RFCC26XX_singleMode.obj (.text:RF_pendCmd)
                  00005398    00000080     i2c_interface.obj (.text:aquireI2CInterface)
                  00005418    00000080     BME688_api.obj (.text:calc_res_heat$6)
                  00005498    0000007c     icall.obj (.text:ICall_createRemoteTasks)
                  00005514    0000007a     rtsv7M3_T_le_eabi.lib : memset_t2.obj (.text)
                  0000558e    00000078     BME688_api.obj (.text:set_conf$6)
                  00005606    00000002     app_ble_pem3.oem3 (.text:ti_sysbios_BIOS_nullFunc__I)
                  00005608    00000074     icall_cc2650.obj (.text:ICallPlatform_pwrUpdActivityCounter)
                  0000567c    00000074     icall.obj (.text:ICall_primSend$23)
                  000056f0    00000074     drivers_cc13xxware.aem3 : PowerCC26XX_calibrateRCOSC.oem3 (.text:PowerCC26XX_auxISR)
                  00005764    00000074     peripheral.obj (.text:gapRole_startConnUpdate$31)
                  000057d8    00000074     main.obj (.text:main)
                  0000584c    00000074     adxl343.obj (.text:sensorTaskFxn$1)
                  000058c0    00000070     driverlib.lib : chipinfo.obj (.text:NOROM_ChipInfo_GetHwRevision)
                  00005930    00000070                   : setup.obj (.text:NOROM_SetupSetVddrLevel)
                  000059a0    0000006d     rom_sysbios.aem3 : rom_sysbios.obj (.text:xdc_runtime_System_formatNum__I)
                  00005a0d    00000001     --HOLE-- [fill = 0]
                  00005a0e    00000002                      : rom_sysbios.obj (.text:ti_sysbios_knl_Clock_triggerFunc__I)
                  00005a10    0000006c     adxl343.obj (.text:ADXL_processCharChangeEvt)
                  00005a7c    0000006c     bme688.obj (.text:BME_processCharChangeEvt)
                  00005ae8    0000006c     icall.obj (.text:ICall_heapInit)
                  00005b54    0000006c     driverlib.lib : setup.obj (.text:NOROM_SetupGetTrimForAmpcompCtrl)
                  00005bc0    0000006c     drivers_cc13xxware.aem3 : PowerCC26XX.oem3 (.text:PowerCC26XX_calibrate)
                  00005c2c    0000006c     RFCC26XX_singleMode.obj (.text:fsmPowerDownState$15)
                  00005c98    0000006a     rtsv7M3_T_le_eabi.lib : copy_decompress_rle.obj (.text)
                  00005d02    00000002     app_ble_pem3.oem3 (.text:ti_sysbios_rom_cortexm_cc13xx_CC13xx_badRomRevision__E)
                  00005d04    00000068     driverlib.lib : setup.obj (.text:NOROM_SetupGetTrimForAnabypassValue1)
                  00005d6c    00000068                   : sys_ctrl.obj (.text:NOROM_SysCtrl_DCDC_VoltageConditionalControl)
                  00005dd4    00000068     sensortag_conn_ctrl.obj (.text:SensorTagConnectionControl_update)
                  00005e3c    00000068     gattservapp_util.obj (.text:gattServApp_SendNotiInd$30)
                  00005ea4    00000064     drivers_cc13xxware.aem3 : I2CCC26XX.oem3 (.text:I2CCC26XX_close)
                  00005f08    00000064                             : I2CCC26XX.oem3 (.text:I2CCC26XX_initIO)
                  00005f6c    00000064     driverlib.lib : osc.obj (.text:NOROM_OSCHF_AttemptToSwitchToXosc)
                  00005fd0    00000064     BME688_api.obj (.text:bme68x_get_data)
                  00006034    00000064     BME688_api.obj (.text:bme68x_get_meas_dur)
                  00006098    00000064     bme688_driver.obj (.text:bme68x_i2c_read)
                  000060fc    00000064     rom_sysbios.aem3 : rom_sysbios.obj (.text:ti_sysbios_family_arm_cc26xx_Timer_start__E)
                  00006160    00000060     icall.obj (.text:ICall_primEnroll$23)
                  000061c0    00000060     driverlib.lib : osc.obj (.text:NOROM_OSCClockSourceSet)
                  00006220    00000060     drivers_cc13xxware.aem3 : PowerCC26XX_calibrateRCOSC.oem3 (.text:PowerCC26XX_RCOSC_clockFunc)
                  00006280    00000060     RFCC26XX_singleMode.obj (.text:RF_getCurrentTime)
                  000062e0    00000060     BME688_api.obj (.text:set_mem_page$6)
                  00006340    00000060     drivers_cc13xxware.aem3 : PowerCC26XX_calibrateRCOSC.oem3 (.text:updateSubSecInc)
                  000063a0    0000005e     adxl_service.obj (.text:sensor_ReadAttrCB$2)
                  000063fe    0000005e     bme688service.obj (.text:sensor_ReadAttrCB$7)
                  0000645c    0000005c     icall.obj (.text:ICall_primThreadServes$23)
                  000064b8    0000005c     driverlib.lib : sys_ctrl.obj (.text:NOROM_SysCtrlAdjustRechargeAfterPowerDown)
                  00006514    0000005c     RFCC26XX_singleMode.obj (.text:applyRfCorePatch$15)
                  00006570    0000005c     BME688_api.obj (.text:calc_temperature$6)
                  000065cc    0000005c     RFCC26XX_singleMode.obj (.text:decActiveClientCnt$15)
                  00006628    0000005c     app_ble_pem3.oem3 (.text:xdc_runtime_Startup_getState__I)
                  00006684    0000005b     rom_sysbios.aem3 : rom_sysbios.obj (.text:xdc_runtime_Text_putLab__E)
                  000066df    00000001     --HOLE-- [fill = 0]
                  000066e0    00000058     drivers_cc13xxware.aem3 : I2CCC26XX.oem3 (.text:I2CCC26XX_swiFxn)
                  00006738    00000058     PINCC26XX.obj (.text:PIN_remove)
                  00006790    00000058     drivers_cc13xxware.aem3 : PowerCC26XX_calibrateRCOSC.oem3 (.text:PowerCC26XX_initiateCalibration)
                  000067e8    00000054     adxl_service.obj (.text:ADXL_setParameter)
                  0000683c    00000054     BME688_api.obj (.text:bme68x_soft_reset)
                  00006890    00000054     drivers_cc13xxware.aem3 : PowerCC26XX.oem3 (.text:configureXOSCHF)
                  000068e4    00000054     RFCC26XX_singleMode.obj (.text:fsmXOSCState$15)
                  00006938    00000054     RFCC26XX_singleMode.obj (.text:hwiFxnHw$15)
                  0000698c    00000054     RFCC26XX_singleMode.obj (.text:ratChanFree$15)
                  000069e0    00000052     icall.obj (.text:ICall_primWait$23)
                  00006a32    00000002     rom_sysbios.aem3 : rom_sysbios.obj (.text:xdc_runtime_SysCallback_defaultAbort)
                  00006a34    00000050     bme688service.obj (.text:BME_setParameter)
                  00006a84    00000050     icall_api.obj (.text:GAP_DeviceInit)
                  00006ad4    00000050     icall_api.obj (.text:GAP_UpdateAdvertisingData)
                  00006b24    00000050     icall.obj (.text:ICall_primRegisterApp$23)
                  00006b74    00000050     driverlib.lib : setup.obj (.text:NOROM_SetupSetCacheModeAccordingToCcfgSetting)
                  00006bc4    00000050     RFCC26XX_singleMode.obj (.text:RF_getInfo)
                  00006c14    00000050     RFCC26XX_singleMode.obj (.text:syncCb$15)
                  00006c64    0000004e     BME688_api.obj (.text:bme68x_get_regs)
                  00006cb2    0000004e     ccservice.obj (.text:ccService_ReadAttrCB$36)
                  00006d00    0000004c     icall_cc2650.obj (.text:ICallPlatform_pwrRegisterNotify)
                  00006d4c    0000004c     icall.obj (.text:ICall_newTask$23)
                  00006d98    0000004c     icall.obj (.text:ICall_primGetEntityId$23)
                  00006de4    0000004c     ysu_sensortag.obj (.text:SensorTag_setDeviceInfo$38)
                  00006e30    0000004c     RFCC26XX_singleMode.obj (.text:dispatchOpWhen$15)
                  00006e7c    0000004c     peripheral.obj (.text:gapRole_processStackMsg$31)
                  00006ec8    0000004c     rtsv7M3_T_le_eabi.lib : cpy_tbl.obj (.text)
                  00006f14    0000004a     gattservapp_util.obj (.text:GATTServApp_ProcessCCCWriteReq)
                  00006f5e    00000002     rom_sysbios.aem3 : rom_sysbios.obj (.text:xdc_runtime_SysCallback_defaultExit)
                  00006f60    00000048     main.obj (.text:AssertHandler)
                  00006fa8    00000048     drivers_cc13xxware.aem3 : I2CCC26XX.oem3 (.text:I2CCC26XX_initHw)
                  00006ff0    00000048     driverlib.lib : chipinfo.obj (.text:NOROM_ChipInfo_GetChipFamily)
                  00007038    00000048     util.obj (.text:Util_constructClock)
                  00007080    00000048     icall_api.obj (.text:gattIndNoti$26)
                  000070c8    00000048     drivers_cc13xxware.aem3 : PowerCC26XX.oem3 (.text:notify)
                  00007110    00000046     bme688_driver.obj (.text:get_data)
                  00007156    00000002     rom_sysbios.aem3 : rom_sysbios.obj (.text:xdc_runtime_SysCallback_defaultFlush)
                  00007158    00000044     icall_api.obj (.text:GAP_TerminateLinkReq)
                  0000719c    00000044     PINCC26XX.obj (.text:PIN_swi$14)
                  000071e0    00000044     boot.aem3 : boot.oem3 (.text)
                  00007224    00000044     icall_api.obj (.text:gapSendParamAndPtrCmd$26)
                  00007268    00000044     rtsv7M3_T_le_eabi.lib : exit.obj (.text)
                  000072ac    00000044     rom_sysbios.aem3 : rom_sysbios.obj (.text:xdc_runtime_Text_xprintf__I)
                  000072f0    00000042     icall.obj (.text:ICall_primCreateTask$23)
                  00007332    00000002     rom_sysbios.aem3 : rom_sysbios.obj (.text:xdc_runtime_SysCallback_defaultPutch)
                  00007334    00000040     peripheral.obj (.text:GAPRole_createTask)
                  00007374    00000040     drivers_cc13xxware.aem3 : PowerCC26XX.oem3 (.text:PowerCC26XX_isStableXOSC_HF)
                  000073b4    00000040     RFCC26XX_singleMode.obj (.text:RF_getRssi)
                  000073f4    00000040     rtsv7M3_T_le_eabi.lib : u_divt2.obj (.text)
                  00007434    0000003c     adxl343.obj (.text:ADXL_createTask)
                  00007470    0000003c     bme688.obj (.text:BME_createTask)
                  000074ac    0000003c     icall_api.obj (.text:GAP_GetParamValue)
                  000074e8    0000003c     icall_api.obj (.text:GATTServApp_RegisterService)
                  00007524    0000003c     icall_cc2650.obj (.text:ICallPlatform_pwrConfigACAction)
                  00007560    0000003c     driverlib.lib : osc.obj (.text:NOROM_OSC_HPOSCRelativeFrequencyOffsetGet)
                  0000759c    0000003c                   : rfc.obj (.text:NOROM_RFCSynthPowerDown)
                  000075d8    0000003c     RFCC26XX_singleMode.obj (.text:RF_runCmd)
                  00007614    0000003c     ysu_sensortag.obj (.text:SensorTag_createTask)
                  00007650    0000003c     RFCC26XX_singleMode.obj (.text:postDirImmCmd$15)
                  0000768c    0000003c     icall_api.obj (.text:sendWaitMatchCS$26)
                  000076c8    0000003c     icall_api.obj (.text:sendWaitMatchValueCS$26)
                  00007704    00000038     icall_api.obj (.text:GAPBondMgr_LinkEst)
                  0000773c    00000038     peripheral.obj (.text:GAPRole_SendUpdateParam)
                  00007774    00000038     drivers_cc13xxware.aem3 : I2C.oem3 (.text:I2C_init)
                  000077ac    00000038     icall.obj (.text:ICall_primGetMaxMSecs$23)
                  000077e4    00000038     util.obj (.text:Util_restartClock)
                  0000781c    00000038     peripheral.obj (.text:gapRole_HandleParamUpdateNoSuccess$31)
                  00007854    00000038     icall_api.obj (.text:linkDB_NumConns)
                  0000788c    00000038     rom_sysbios.aem3 : rom_sysbios.obj (.text:ti_sysbios_family_arm_cc26xx_Timer_getCurrentTick__E)
                  000078c4    00000036     icall_api.obj (.text:profileSetParameter$26)
                  000078fa    00000036     RFCC26XX_singleMode.obj (.text:updateImplicitState$15)
                  00007930    00000034     icall_api.obj (.text:GAPBondMgr_SetParameter)
                  00007964    00000034     icall_api.obj (.text:GAP_SetParamValue)
                  00007998    00000034     icall.obj (.text:ICall_primEntityId2ServiceId$23)
                  000079cc    00000034     icall.obj (.text:ICall_primFetchMsg$23)
                  00007a00    00000034     icall.obj (.text:ICall_primRegisterISR$23)
                  00007a34    00000034     icall.obj (.text:ICall_primRegisterISR_Ext$23)
                  00007a68    00000034     icall.obj (.text:ICall_searchServiceEntity)
                  00007a9c    00000034     driverlib.lib : osc.obj (.text:NOROM_OSCHF_SwitchToRcOscTurnOffXosc)
                  00007ad0    00000034                   : trng.obj (.text:NOROM_TRNGConfigure)
                  00007b04    00000034     PINCC26XX.obj (.text:PIN_setOutputValue)
                  00007b38    00000034     RFCC26XX_singleMode.obj (.text:Q_push$15)
                  00007b6c    00000034     BME688_api.obj (.text:bme68x_init)
                  00007ba0    00000034     bme688_driver.obj (.text:init_bme)
                  00007bd4    00000034     icall_api.obj (.text:osal_snv_read)
                  00007c08    00000034     icall_api.obj (.text:osal_snv_write)
                  00007c3c    00000034     icall_api.obj (.text:profileAddService$26)
                  00007c70    00000032     icall_api.obj (.text:gapSendParamsCmd$26)
                  00007ca2    00000032     icall_api.obj (.text:gapSendPtrParamsCmd$26)
                  00007cd4    00000032     BME688_api.obj (.text:get_mem_page$6)
                  00007d06    00000032     icall_api.obj (.text:matchGapSetGetParamCS$26)
                  00007d38    00000032     icall_api.obj (.text:matchGattCmdStatus$26)
                  00007d6a    00000032     icall_api.obj (.text:matchUtilNvCS$26)
                  00007d9c    00000032     rom_sysbios.aem3 : rom_sysbios.obj (.text:ti_sysbios_family_arm_cc26xx_Timer_setNextTick__E)
                  00007dce    00000002     --HOLE-- [fill = 0]
                  00007dd0    00000030     drivers_cc13xxware.aem3 : I2C.oem3 (.text:I2C_open)
                  00007e00    00000030     icall_cc2650.obj (.text:ICallPlatform_pwrNotify$24)
                  00007e30    00000030     icall.obj (.text:ICall_msecs2Ticks$23)
                  00007e60    00000030     icall.obj (.text:ICall_searchTask$23)
                  00007e90    00000030     driverlib.lib : setup.obj (.text:NOROM_SetupSetAonRtcSubSecInc)
                  00007ec0    00000030     drivers_cc13xxware.aem3 : PowerCC26XX.oem3 (.text:Power_releaseConstraint)
                  00007ef0    00000030                             : PowerCC26XX.oem3 (.text:Power_setConstraint)
                  00007f20    00000030     bme688_driver.obj (.text:bme68x_interface_init)
                  00007f50    00000030     app_ble_pem3.oem3 (.text:ti_sysbios_BIOS_atExitFunc__I)
                  00007f80    00000030     app_ble_pem3.oem3 (.text:ti_sysbios_BIOS_startFunc__I)
                  00007fb0    00000030     rom_sysbios.aem3 : rom_sysbios.obj (.text:ti_sysbios_family_arm_cc26xx_Timer_initDevice__I)
                  00007fe0    00000030                      : rom_sysbios.obj (.text:ti_sysbios_family_arm_cc26xx_Timer_setThreshold__I)
                  00008010    0000002f                      : rom_sysbios.obj (.text:xdc_runtime_Text_printVisFxn__I)
                  0000803f    00000001     --HOLE-- [fill = 0]
                  00008040    0000002e     icall_cc2650.obj (.text:ICallPlatform_pwrDispenseImpl$24)
                  0000806e    0000002e     icall_cc2650.obj (.text:ICallPlatform_pwrRequireImpl$24)
                  0000809c    0000002e     peripheral.obj (.text:ICall_fetchServiceMsg$31)
                  000080ca    0000002e     ysu_sensortag.obj (.text:ICall_fetchServiceMsg$38)
                  000080f8    0000002e     icall.obj (.text:ICall_msgDequeue$23)
                  00008126    0000002e     icall_api.obj (.text:matchProfileAddServiceCS$26)
                  00008154    0000002c     adxl343.obj (.text:ADXL_init)
                  00008180    0000002c     bme688.obj (.text:BME_init)
                  000081ac    0000002c     icall.obj (.text:ICall_heapFree)
                  000081d8    0000002c     adxl_service.obj (.text:ICall_malloc$2)
                  00008204    0000002c     bme688service.obj (.text:ICall_malloc$7)
                  00008230    0000002c     icall.obj (.text:ICall_msgEnqueue$23)
                  0000825c    0000002c     icall.obj (.text:ICall_primAllocMsg$23)
                  00008288    0000002c     icall.obj (.text:ICall_primFetchServiceMsg$23)
                  000082b4    0000002c     icall_api.obj (.text:ICall_sendServiceMsg$26)
                  000082e0    0000002c     driverlib.lib : ddi.obj (.text:NOROM_DDI32RegWrite)
                  0000830c    0000002c                   : osc.obj (.text:NOROM_OSCClockSourceGet)
                  00008338    0000002c                   : setup.obj (.text:NOROM_SetupGetTrimForRadcExtCfg)
                  00008364    0000002c     PINCC26XX.obj (.text:PINCC26XX_setMux)
                  00008390    0000002c     PINCC26XX.obj (.text:PIN_setConfig)
                  000083bc    0000002c     BME688_api.obj (.text:boundary_check$6)
                  000083e8    0000002c     bme688_driver.obj (.text:config_bme)
                  00008414    0000002c     RFCC26XX_singleMode.obj (.text:getCmd$15)
                  00008440    0000002c     rom_sysbios.aem3 : rom_sysbios.obj (.text:ti_sysbios_knl_Clock_getTicksUntilInterrupt__E)
                  0000846c    0000002c     st_util.obj (.text:utilExtractUuid16)
                  00008498    0000002a     icall_api.obj (.text:ICall_waitMatch$26)
                  000084c2    0000002a     TRNGCC26XX.obj (.text:TRNGCC26XX_isParamValid)
                  000084ec    0000002a     util.obj (.text:Util_enqueueMsg)
                  00008516    0000002a     icall_api.obj (.text:matchProfileCS$26)
                  00008540    0000002a     rom_sysbios.aem3 : rom_sysbios.obj (.text:xdc_runtime_System_putchar__I)
                  0000856a    00000002     --HOLE-- [fill = 0]
                  0000856c    00000028     adxl_service.obj (.text:ADXL_addService)
                  00008594    00000028     bme688service.obj (.text:BME_addService)
                  000085bc    00000028     bme688service.obj (.text:BME_getParameter)
                  000085e4    00000028     ccservice.obj (.text:CcService_setParameter)
                  0000860c    00000028     gattservapp_util.obj (.text:GATTServApp_WriteCharCfg)
                  00008634    00000028     icall.obj (.text:ICall_init)
                  0000865c    00000028     icall.obj (.text:ICall_msgPrepend$23)
                  00008684    00000028     adxl343.obj (.text:ICall_registerApp$1)
                  000086ac    00000028     peripheral.obj (.text:ICall_registerApp$31)
                  000086d4    00000028     ysu_sensortag.obj (.text:ICall_registerApp$38)
                  000086fc    00000028     bme688.obj (.text:ICall_registerApp$8)
                  00008724    00000028     driverlib.lib : aon_batmon.obj (.text:NOROM_AONBatMonTemperatureGetDegC)
                  0000874c    00000028     drivers_cc13xxware.aem3 : PowerCC26XX.oem3 (.text:PowerCC26XX_switchXOSC_HF)
                  00008774    00000028                             : PowerCC26XX.oem3 (.text:Power_registerNotify)
                  0000879c    00000028     driverlib.lib : adi.obj (.text:SafeHapiVoid)
                  000087c4    00000028     ysu_sensortag.obj (.text:SensorTag_enqueueMsg$38)
                  000087ec    00000028     TRNGCC26XX.obj (.text:TRNGCC26XX_init)
                  00008814    00000028     RFCC26XX_singleMode.obj (.text:clkPowerUpFxn$15)
                  0000883c    00000028     gattservapp_util.obj (.text:gattServApp_FindCharCfgItem$30)
                  00008864    00000028     rom_sysbios.aem3 : rom_sysbios.obj (.text:ti_sysbios_family_arm_cc26xx_Timer_getMaxTicks__E)
                  0000888c    00000026     drivers_cc13xxware.aem3 : List.oem3 (.text:List_put)
                  000088b2    00000002     --HOLE-- [fill = 0]
                  000088b4    00000024     adxl_service.obj (.text:ADXL_getParameter)
                  000088d8    00000024     adxl343.obj (.text:ADXL_reset)
                  000088fc    00000024     bme688.obj (.text:BME_reset)
                  00008920    00000024     icall_api.obj (.text:GAPBondMgr_LinkTerm)
                  00008944    00000024     icall_api.obj (.text:GAPBondMgr_Register)
                  00008968    00000024     icall_api.obj (.text:ICall_getLocalMsgEntityId$26)
                  0000898c    00000024     icall_api.obj (.text:ICall_threadServes$26)
                  000089b0    00000024     PINCC26XX.obj (.text:PINCC26XX_getPinCount)
                  000089d4    00000024     simple_peripheral.obj (.text:SimpleBLEPeripheral_enqueueMsg$4)
                  000089f8    00000024     BME688_api.obj (.text:bme68x_get_op_mode)
                  00008a1c    00000024     BME688_api.obj (.text:calc_gas_wait$6)
                  00008a40    00000024     drivers_cc13xxware.aem3 : PowerCC26XX_calibrateRCOSC.oem3 (.text:getTdcSemaphore)
                  00008a64    00000024     RFCC26XX_singleMode.obj (.text:hwiFxnCpe0PowerFsm$15)
                  00008a88    00000024     main.obj (.text:rFSwitchNotifyCb$0)
                  00008aac    00000024     app_ble_pem3.oem3 (.text:ti_sysbios_BIOS_registerRTSLock__I)
                  00008ad0    00000024     app_ble_pem3.oem3 (.text:ti_sysbios_BIOS_removeRTSLock__I)
                  00008af4    00000024     rom_sysbios.aem3 : rom_sysbios.obj (.text:xdc_runtime_System_vprintf__E)
                  00008b18    00000022     icall.obj (.text:ICall_dispatch$23)
                  00008b3a    00000022     ysu_sensortag.obj (.text:ICall_malloc$38)
                  00008b5c    00000022     util.obj (.text:ICall_malloc$5)
                  00008b7e    00000022     bme688_driver.obj (.text:config_heatr)
                  00008ba0    00000020     gattservapp_util.obj (.text:GATTServApp_InitCharCfg)
                  00008bc0    00000020     icall_api.obj (.text:GATT_bm_alloc)
                  00008be0    00000020     icall_api.obj (.text:ICall_allocMsg$26)
                  00008c00    00000020     icall_api.obj (.text:ICall_getEntityId$26)
                  00008c20    00000020     devinfoservice.obj (.text:ICall_malloc$28)
                  00008c40    00000020     simple_peripheral.obj (.text:ICall_malloc$4)
                  00008c60    00000020     icall.obj (.text:ICall_primService$23)
                  00008c80    00000020     icall.obj (.text:ICall_searchService$23)
                  00008ca0    00000020     driverlib.lib : rfc.obj (.text:NOROM_RFCAdi3VcoLdoVoltageMode)
                  00008cc0    00000020                   : rfc.obj (.text:NOROM_RFCDoorbellSendTo)
                  00008ce0    00000020                   : setup.obj (.text:NOROM_SetupGetTrimForXoscHfCtl)
                  00008d00    00000020     drivers_cc13xxware.aem3 : PowerCC26XX.oem3 (.text:Power_unregisterNotify)
                  00008d20    00000020     RFCC26XX_singleMode.obj (.text:allocCmd$15)
                  00008d40    00000020     BME688_api.obj (.text:calc_gas_resistance_high$6)
                  00008d60    00000020     BME688_api.obj (.text:read_variant_id$6)
                  00008d80    00000020     app_ble_pem3.oem3 (.text:ti_sysbios_BIOS_rtsLock__I)
                  00008da0    00000020     rom_sysbios.aem3 : rom_sysbios.obj (.text:ti_sysbios_knl_Clock_stop__E)
                  00008dc0    00000020                      : rom_sysbios.obj (.text:xdc_runtime_Registry_findById__E)
                  00008de0    0000001e     icall.obj (.text:ICall_primSendServiceMsg$23)
                  00008dfe    0000001e     PINCC26XX.obj (.text:PIN_close)
                  00008e1c    0000001e     drivers_cc13xxware.aem3 : PowerCC26XX.oem3 (.text:Power_getTransitionLatency)
                  00008e3a    0000001e     bme688.obj (.text:initCharacteristicValue$8)
                  00008e58    0000001e     icall_api.obj (.text:waitMatchCS$26)
                  00008e76    00000002     --HOLE-- [fill = 0]
                  00008e78    0000001c     icall_api.obj (.text:GATT_bm_free)
                  00008e94    0000001c     icall.obj (.text:ICall_initPrim$23)
                  00008eb0    0000001c     peripheral.obj (.text:ICall_wait$31)
                  00008ecc    0000001c     ysu_sensortag.obj (.text:ICall_wait$38)
                  00008ee8    0000001c     driverlib.lib : setup.obj (.text:NOROM_SetupGetTrimForAmpcompTh2)
                  00008f04    0000001c                   : setup.obj (.text:NOROM_SetupGetTrimForRcOscLfRtuneCtuneTrim)
                  00008f20    0000001c     PINCC26XX.obj (.text:PINCC26XX_setIoCfgMux$14)
                  00008f3c    0000001c     PINCC26XX.obj (.text:PIN_hwi$14)
                  00008f58    0000001c     RFCC26XX_singleMode.obj (.text:RF_runDirectCmd)
                  00008f74    0000001c     RFCC26XX_singleMode.obj (.text:RF_runImmediateCmd)
                  00008f90    0000001c     ysu_sensortag.obj (.text:SensorTag_processAppMsg$38)
                  00008fac    0000001c     TRNGCC26XX.obj (.text:TRNGCC26XX_open)
                  00008fc8    0000001c     icall_api.obj (.text:getStatusValueFromErrNo$26)
                  00008fe4    0000001c     TRNGCC26XX.obj (.text:openTRNG)
                  00009000    0000001c     rom_sysbios.aem3 : rom_sysbios.obj (.text:ti_sysbios_family_arm_cc26xx_Timer_dynamicStub__E)
                  0000901c    0000001a     icall.obj (.text:ICall_enterCSImpl)
                  00009036    0000001a     icall.obj (.text:ICall_primSetTimerMSecs$23)
                  00009050    0000001a     drivers_cc13xxware.aem3 : List.oem3 (.text:List_remove)
                  0000906a    0000001a     util.obj (.text:Util_dequeueMsg)
                  00009084    0000001a     icall_api.obj (.text:matchGattIndNotiCS$26)
                  0000909e    0000001a     BME688_api.obj (.text:null_ptr_check$6)
                  000090b8    0000001a     rom_sysbios.aem3 : rom_sysbios_config.obj (.text:xdc_runtime_System_printf__E)
                  000090d2    00000002     --HOLE-- [fill = 0]
                  000090d4    00000018     adxl_service.obj (.text:ADXL_registerAppCBs)
                  000090ec    00000018     bme688service.obj (.text:BME_registerAppCBs)
                  00009104    00000018     peripheral.obj (.text:GAPRole_TerminateConnection)
                  0000911c    00000018     icall_api.obj (.text:GATT_Notification)
                  00009134    00000018     icall_cc2650.obj (.text:ICallPlatform_pwrDispense)
                  0000914c    00000018     icall_cc2650.obj (.text:ICallPlatform_pwrRequire)
                  00009164    00000018     devinfoservice.obj (.text:ICall_free$28)
                  0000917c    00000018     ysu_sensortag.obj (.text:ICall_free$38)
                  00009194    00000018     util.obj (.text:ICall_free$5)
                  000091ac    00000018     icall.obj (.text:ICall_freeMsg$23)
                  000091c4    00000018     icall_api.obj (.text:ICall_freeMsg$26)
                  000091dc    00000018     peripheral.obj (.text:ICall_freeMsg$31)
                  000091f4    00000018     ysu_sensortag.obj (.text:ICall_freeMsg$38)
                  0000920c    00000018     icall.obj (.text:ICall_primMalloc$23)
                  00009224    00000018     driverlib.lib : aon_rtc.obj (.text:NOROM_AONRTCCurrentCompareValueGet)
                  0000923c    00000018                   : chipinfo.obj (.text:NOROM_ChipInfo_GetPackageType)
                  00009254    00000018                   : osc.obj (.text:NOROM_OSCHF_TurnOnXosc)
                  0000926c    00000018                   : rfc.obj (.text:NOROM_RFCCpeIntGetAndClear)
                  00009284    00000018                   : setup.obj (.text:NOROM_SetupGetTrimForAdcShModeEn)
                  0000929c    00000018                   : setup.obj (.text:NOROM_SetupGetTrimForAdcShVbufEn)
                  000092b4    00000018                   : setup.obj (.text:NOROM_SetupGetTrimForAmpcompTh1)
                  000092cc    00000018                   : setup.obj (.text:NOROM_SetupGetTrimForDblrLoopFilterResetVoltage)
                  000092e4    00000018                   : setup.obj (.text:NOROM_SetupGetTrimForRcOscLfIBiasTrim)
                  000092fc    00000018                   : setup.obj (.text:NOROM_SetupGetTrimForXoscLfRegulatorAndCmirrwrRatio)
                  00009314    00000018     drivers_cc13xxware.aem3 : PowerCC26XX.oem3 (.text:Power_idleFunc)
                  0000932c    00000018     RFCC26XX_singleMode.obj (.text:Q_pop$15)
                  00009344    00000018     ysu_sensortag.obj (.text:SensorTag_processCharValueChangeEvt$38)
                  0000935c    00000018     ysu_sensortag.obj (.text:SensorTag_updateAdvertisingData)
                  00009374    00000018     drivers_cc13xxware.aem3 : PowerCC26XX.oem3 (.text:configureRFCoreClocks)
                  0000938c    00000018     peripheral.obj (.text:gapRole_setEvent$31)
                  000093a4    00000018     adxl343.obj (.text:initCharacteristicValue$1)
                  000093bc    00000018     rtsv7M3_T_le_eabi.lib : args_main.obj (.text)
                  000093d4    00000018                           : ll_mul_t2.obj (.text)
                  000093ec    00000018     RFCC26XX_singleMode.obj (.text:swiFxnFsm$15)
                  00009404    00000018     app_ble_pem3.oem3 (.text:ti_sysbios_BIOS_rtsUnlock__I)
                  0000941c    00000018     rom_sysbios.aem3 : rom_sysbios.obj (.text:ti_sysbios_knl_Swi_or__E)
                  00009434    00000018     app_ble_pem3.oem3 (.text:ti_sysbios_rom_cortexm_cc13xx_CC13xx_checkRevision__E)
                  0000944c    00000016     icall.obj (.text:ICall_abort$23)
                  00009462    00000016     icall.obj (.text:ICall_leaveCSImpl)
                  00009478    00000016     icall.obj (.text:ICall_primStopTimer$23)
                  0000948e    00000016     driverlib.lib : chipinfo.obj (.text:NOROM_ThisCodeIsBuiltForCC13xxHwRev20AndLater_HaltIfViolated)
                  000094a4    00000016     ble_user_config.obj (.text:driverTable_fnSpinlock)
                  000094ba    00000016     app_ble_pem3.oem3 (.text:ti_sysbios_BIOS_exitFunc__I)
                  000094d0    00000014     devinfoservice.obj (.text:DevInfo_AddService)
                  000094e4    00000014     peripheral.obj (.text:GAPRole_StartDevice)
                  000094f8    00000014     driverlib.lib : aon_rtc.obj (.text:NOROM_AONRTCCurrent64BitValueGet)
                  0000950c    00000014     RFCC26XX_singleMode.obj (.text:RF_Params_init)
                  00009520    00000014     ysu_sensortag.obj (.text:SensorTag_clockHandler$38)
                  00009534    00000014     rtsv7M3_T_le_eabi.lib : _lock.obj (.text)
                  00009548    00000014                           : strlen.obj (.text)
                  0000955c    00000014     icall_api.obj (.text:setICallCmdEvtHdr$26)
                  00009570    00000014     app_ble_pem3.oem3 (.text:ti_sysbios_knl_Clock_doTick__I)
                  00009584    00000012     gattservapp_util.obj (.text:GATTServApp_FindAttr)
                  00009596    00000012     RFCC26XX_singleMode.obj (.text:RF_getCmdOp)
                  000095a8    00000012     app_ble_pem3.oem3 (.text:xdc_runtime_Startup_exec__I)
                  000095ba    00000002     --HOLE-- [fill = 0]
                  000095bc    00000010     icall_api.obj (.text:GAP_EndDiscoverable)
                  000095cc    00000010     gattservapp_util.obj (.text:GATTServApp_ReadCharCfg)
                  000095dc    00000010     drivers_cc13xxware.aem3 : I2C.oem3 (.text:I2C_Params_init)
                  000095ec    00000010     icall_cc2650.obj (.text:ICallPlatform_pwrGetXOSCStartupTime)
                  000095fc    00000010     icall.obj (.text:ICall_primGetTickPeriod$23)
                  0000960c    00000010     icall.obj (.text:ICall_taskEntry$23)
                  0000961c    00000010     driverlib.lib : rfc.obj (.text:NOROM_RFCRfTrimSet)
                  0000962c    00000010                   : setup.obj (.text:NOROM_SetupGetTrimForXoscHfFastStart)
                  0000963c    00000010                   : setup.obj (.text:NOROM_SetupGetTrimForXoscHfIbiastherm)
                  0000964c    00000010     ble_user_config.obj (.text:RegisterAssertCback)
                  0000965c    00000010     util.obj (.text:Util_isActive)
                  0000966c    00000010     bme688_driver.obj (.text:bme68x_delay_us)
                  0000967c    00000010     drivers_cc13xxware.aem3 : I2CCC26XX.oem3 (.text:i2cPostNotify)
                  0000968c    00000010     rom_sysbios.aem3 : rom_sysbios.obj (.text:ti_sysbios_family_arm_m3_Hwi_post__E)
                  0000969c    00000010                      : rom_sysbios.obj (.text:xdc_runtime_SysCallback_flush__E)
                  000096ac    00000010                      : rom_sysbios.obj (.text:xdc_runtime_SysCallback_putch__E)
                  000096bc    00000010                      : rom_sysbios.obj (.text:xdc_runtime_SysCallback_ready__E)
                  000096cc    00000010                      : rom_sysbios.obj (.text:xdc_runtime_System_vsnprintf__E)
                  000096dc    0000000e     icall_cc2650.obj (.text:ICallPlatform_pwrGetTransitionState)
                  000096ea    0000000e     icall_cc2650.obj (.text:ICallPlatform_pwrIsStableXOSCHF)
                  000096f8    0000000e     icall.obj (.text:ICall_primDisableMInt$23)
                  00009706    0000000e     icall.obj (.text:ICall_primEnableMInt$23)
                  00009714    0000000e     icall.obj (.text:ICall_primFreeMsg$23)
                  00009722    0000000e     icall.obj (.text:ICall_primGetTicks$23)
                  00009730    0000000e     driverlib.lib : setup.obj (.text:NOROM_SetupSignExtendVddrTrimValue)
                  0000973e    0000000e                   : vims.obj (.text:NOROM_VIMSModeGet)
                  0000974c    0000000e     util.obj (.text:Util_constructQueue)
                  0000975a    0000000e     rtsv7M3_T_le_eabi.lib : copy_decompress_none.obj (.text:decompress:none)
                  00009768    0000000e     icall_api.obj (.text:matchGSARegisterServiceCS$26)
                  00009776    0000000e     icall_api.obj (.text:matchGapLinkEstCS$26)
                  00009784    0000000e     icall_api.obj (.text:matchLinkDBNumConnsCS$26)
                  00009792    0000000e     icall_api.obj (.text:setDispatchCmdEvtHdr$26)
                  000097a0    0000000e     rom_sysbios.aem3 : rom_sysbios.obj (.text:ti_sysbios_family_arm_cc26xx_TimestampProvider_get32__E)
                  000097ae    00000002     --HOLE-- [fill = 0]
                  000097b0    0000000c     RFCC26XX_singleMode.obj (.text:FsmNextState$15)
                  000097bc    0000000c     icall_api.obj (.text:GAP_MakeDiscoverable)
                  000097c8    0000000c     icall_api.obj (.text:GAP_TerminateAuth)
                  000097d4    0000000c     icall_api.obj (.text:GAP_UpdateLinkParamReq)
                  000097e0    0000000c     icall_api.obj (.text:GAP_UpdateLinkParamReqReply)
                  000097ec    0000000c     icall_api.obj (.text:GGS_SetParameter)
                  000097f8    0000000c     icall.obj (.text:ICall_clockFunc$23)
                  00009804    0000000c     icall.obj (.text:ICall_primDisableInt$23)
                  00009810    0000000c     icall.obj (.text:ICall_primEnableInt$23)
                  0000981c    0000000c     icall.obj (.text:ICall_primFree$23)
                  00009828    0000000c     icall.obj (.text:ICall_primSignal$23)
                  00009834    0000000c     driverlib.lib : cpu.obj (.text:NOROM_CPUcpsid)
                  00009840    0000000c                   : cpu.obj (.text:NOROM_CPUcpsie)
                  0000984c    0000000c     drivers_cc13xxware.aem3 : PowerCC26XX.oem3 (.text:Power_getConstraintMask)
                  00009858    0000000c                             : PowerCC26XX.oem3 (.text:Power_getDependencyCount)
                  00009864    0000000c                             : PowerCC26XX.oem3 (.text:Power_getTransitionState)
                  00009870    0000000c     ysu_sensortag.obj (.text:SensorTag_processGATTMsg$38)
                  0000987c    0000000c     ysu_sensortag.obj (.text:SensorTag_processStackMsg$38)
                  00009888    0000000c     rtsv7M3_T_le_eabi.lib : copy_zero_init.obj (.text:decompress:ZI)
                  00009894    0000000c     icall_api.obj (.text:matchProfileSetParamCS$26)
                  000098a0    0000000c     i2c_interface.obj (.text:releaseI2CInterface)
                  000098ac    0000000c     rom_sysbios.aem3 : rom_sysbios.obj (.text:ti_sysbios_BIOS_getThreadType__E)
                  000098b8    0000000c                      : rom_sysbios_config.obj (.text:ti_sysbios_hal_Hwi_Params__init__S)
                  000098c4    0000000c                      : rom_sysbios.obj (.text:ti_sysbios_knl_Swi_getTrigger__E)
                  000098d0    0000000c     app_ble_pem3.oem3 (.text:xdc_runtime_Startup_reset__I)
                  000098dc    0000000c     rom_sysbios.aem3 : rom_sysbios.obj (.text:xdc_runtime_Startup_rtsDone__E)
                  000098e8    0000000a     drivers_cc13xxware.aem3 : I2CCC26XX.oem3 (.text:I2CCC26XX_init)
                  000098f2    0000000a                             : I2C.oem3 (.text:I2C_close)
                  000098fc    0000000a                             : I2C.oem3 (.text:I2C_transfer)
                  00009906    0000000a     icall_cc2650.obj (.text:ICallPlatform_pwrSwitchXOSCHF)
                  00009910    0000000a     icall.obj (.text:ICall_primE2S$23)
                  0000991a    0000000a     drivers_cc13xxware.aem3 : List.oem3 (.text:List_empty)
                  00009924    0000000a     ysu_sensortag.obj (.text:SensorTag_charValueChangeCB)
                  0000992e    0000000a     ysu_sensortag.obj (.text:SensorTag_stateChangeCB$38)
                  00009938    00000008     icall_api.obj (.text:GATT_Indication)
                  00009940    00000008     drivers_cc13xxware.aem3 : I2CCC26XX.oem3 (.text:I2CCC26XX_blockingCallback)
                  00009948    00000008     RFCC26XX_singleMode.obj (.text:RF_flushCmd)
                  00009950    00000008     simple_peripheral.obj (.text:SimpleBLEPeripheral_charValueChangeCB$4)
                  00009958    00000008     simple_peripheral.obj (.text:SimpleBLEPeripheral_stateChangeCB$4)
                  00009960    00000008     adxl343.obj (.text:sensorConfigChangeCB$1)
                  00009968    00000008     bme688.obj (.text:sensorConfigChangeCB$8)
                  00009970    00000008     app_ble_pem3.oem3 (.text:xdc_runtime_Text_visitRope__I)
                  00009978    00000006     icall_api.obj (.text:GGS_AddService)
                  0000997e    00000006     drivers_cc13xxware.aem3 : I2CCC26XX.oem3 (.text:I2CCC26XX_control)
                  00009984    00000006     icall.obj (.text:ICall_mallocImpl)
                  0000998a    00000006     driverlib.lib : cpu.obj (.text:NOROM_CPUdelay)
                  00009990    00000006     rom_sysbios.aem3 : rom_sysbios.obj (.text:__xdc__init)
                  00009996    00000006     RFCC26XX_singleMode.obj (.text:clkInactivityFxn$15)
                  0000999c    00000006     rtsv7M3_T_le_eabi.lib : copy_decompress_rle.obj (.text:decompress:rle24)
                  000099a2    00000006     icall_api.obj (.text:gattAddService$26)
                  000099a8    00000006     icall_api.obj (.text:matchBondMgrSetParamCS$26)
                  000099ae    00000006     icall_api.obj (.text:matchGGSSetParamCS$26)
                  000099b4    00000006     icall_api.obj (.text:matchGapConnParamUpdateReplyCS$26)
                  000099ba    00000006     icall_api.obj (.text:matchGapDeviceInitCS$26)
                  000099c0    00000006     icall_api.obj (.text:matchGapEndDiscoverableCS$26)
                  000099c6    00000006     icall_api.obj (.text:matchGapGetParamCS$26)
                  000099cc    00000006     icall_api.obj (.text:matchGapMakeDiscoverableCS$26)
                  000099d2    00000006     icall_api.obj (.text:matchGapSetParamCS$26)
                  000099d8    00000006     icall_api.obj (.text:matchGapTerminateAuthCS$26)
                  000099de    00000006     icall_api.obj (.text:matchGapTerminateLinkReqCS$26)
                  000099e4    00000006     icall_api.obj (.text:matchGapUpdateAdvDataCS$26)
                  000099ea    00000006     icall_api.obj (.text:matchGapUpdateLinkParamReqCS$26)
                  000099f0    00000006     icall_api.obj (.text:matchUtilNvReadCS$26)
                  000099f6    00000006     icall_api.obj (.text:matchUtilNvWriteCS$26)
                  000099fc    00000006     rom_sysbios.aem3 : rom_sysbios.obj (.text:ti_sysbios_family_arm_m3_Hwi_setFunc__E)
                  00009a02    00000004     tirtosport.aem3 : HwiP_tirtos.oem3 (.text:HwiP_disable)
                  00009a06    00000004     icall.obj (.text:ICall_primAbort$23)
                  00009a0a    00000004     drivers_cc13xxware.aem3 : List.oem3 (.text:List_head)
                  00009a0e    00000004                             : List.oem3 (.text:List_next)
                  00009a12    00000004     RFCC26XX_singleMode.obj (.text:Q_peek$15)
                  00009a16    00000004     util.obj (.text:Util_startClock)
                  00009a1a    00000004     util.obj (.text:Util_stopClock)
                  00009a1e    00000004     peripheral.obj (.text:gapRole_SetupGAP$31)
                  00009a22    00000004     drivers_cc13xxware.aem3 : PowerCC26XX.oem3 (.text:nopResourceHandler)
                  00009a26    00000004     rom_sysbios.aem3 : rom_sysbios.obj (.text:ti_sysbios_family_arm_cc26xx_Timer_getCount64__E)
                  00009a2a    00000004                      : rom_sysbios.obj (.text:ti_sysbios_knl_Clock_isActive__E)
                  00009a2e    00000004                      : rom_sysbios.obj (.text:ti_sysbios_knl_Queue_insert__E)
                  00009a32    00000004                      : rom_sysbios.obj (.text:xdc_runtime_SysCallback_defaultReady)
                  00009a36    00000004                      : rom_sysbios.obj (.text:xdc_runtime_System_printf_va__F)
                  00009a3a    00000002     --HOLE-- [fill = 0]
                  00009a3c    00000008     (.tramp.xdc_runtime_Core_assignParams__I.1)
                  00009a44    00000008     (.tramp.ti_sysbios_hal_Hwi_HwiProxy_enableInterrupt__E.1)
                  00009a4c    00000008     (.tramp.ti_sysbios_hal_Hwi_HwiProxy_disableInterrupt__E.1)
                  00009a54    00000008     (.tramp.ti_sysbios_knl_Queue_construct.1)
                  00009a5c    00000008     (.tramp.ti_sysbios_knl_Task_enable__E.1)
                  00009a64    00000008     (.tramp.ti_sysbios_family_arm_m3_Hwi_enableFxn__E.1)
                  00009a6c    00000008     (.tramp.xdc_runtime_Startup_startMods__I.1)
                  00009a74    00000008     (.tramp.ti_sysbios_knl_Clock_logTick__E.1)
                  00009a7c    00000008     (.tramp.ti_sysbios_BIOS_RtsGateProxy_leave__E.1)
                  00009a84    00000008     (.tramp.ti_sysbios_knl_Queue_get__E.1)
                  00009a8c    00000008     (.tramp.ti_sysbios_BIOS_RtsGateProxy_enter__E.1)
                  00009a94    00000008     (.tramp.ti_sysbios_knl_Queue_put__E.1)
                  00009a9c    00000008     (.tramp.ti_sysbios_knl_Task_startup__E.1)
                  00009aa4    00000008     (.tramp.ti_sysbios_knl_Swi_startup__E.1)
                  00009aac    00000008     (.tramp.ti_sysbios_hal_Hwi_HwiProxy_startup__E.1)
                  00009ab4    00000008     (.tramp.ti_sysbios_family_arm_cc26xx_Timer_startup__E.1)
                  00009abc    00000008     (.tramp.xdc_runtime_System_atexit__E.1)
                  00009ac4    00000008     (.tramp.ti_sysbios_BIOS_setThreadType__E.1)
                  00009acc    00000008     (.tramp.ti_sysbios_hal_Hwi_create.1)
                  00009ad4    00000008     (.tramp.ti_sysbios_knl_Task_construct.1)
                  00009adc    00000008     (.tramp.xdc_runtime_System_exit__E.1)
                  00009ae4    00000008     (.tramp.ti_sysbios_BIOS_getCpuFreq__E.1)
                  00009aec    00000008     (.tramp.ti_sysbios_knl_Semaphore_create.1)
                  00009af4    00000008     (.tramp.ti_sysbios_knl_Semaphore_destruct.1)
                  00009afc    00000008     (.tramp.ti_sysbios_knl_Swi_destruct.1)
                  00009b04    00000008     (.tramp.ti_sysbios_family_arm_m3_Hwi_destruct.1)
                  00009b0c    00000008     (.tramp.ti_sysbios_BIOS_start__E.1)
                  00009b14    00000008     (.tramp.ti_sysbios_knl_Task_create.1)
                  00009b1c    00000008     (.tramp.ti_sysbios_knl_Task_Params__init__S.1)
                  00009b24    00000008     (.tramp.ti_sysbios_knl_Clock_create.1)
                  00009b2c    00000008     (.tramp.ti_sysbios_knl_Clock_scheduleNextTick__E.1)
                  00009b34    00000008     (.tramp.ti_sysbios_knl_Clock_walkQueueDynamic__E.1)
                  00009b3c    00000008     (.tramp.ti_sysbios_knl_Clock_TimerProxy_getCurrentTick__E.1)
                  00009b44    00000008     (.tramp.ti_sysbios_knl_Queue_enqueue__E.1)
                  00009b4c    00000008     (.tramp.ti_sysbios_knl_Queue_empty__E.1)
                  00009b54    00000008     (.tramp.ti_sysbios_knl_Queue_remove__E.1)
                  00009b5c    00000008     (.tramp.ti_sysbios_family_arm_m3_Hwi_disableInterrupt__E.1)
                  00009b64    00000008     (.tramp.ti_sysbios_knl_Task_sleep__E.1)
                  00009b6c    00000008     (.tramp.ti_sysbios_family_arm_m3_Hwi_enableInterrupt__E.1)
                  00009b74    00000008     (.tramp.ti_sysbios_knl_Swi_post__E.1)
                  00009b7c    00000008     (.tramp.ti_sysbios_knl_Semaphore_post__E.1)
                  00009b84    00000008     (.tramp.ti_sysbios_knl_Semaphore_pend__E.1)
                  00009b8c    00000008     (.tramp.ti_sysbios_knl_Clock_getTicks__E.1)
                  00009b94    00000008     (.tramp.ti_sysbios_knl_Task_self__E.1)
                  00009b9c    00000008     (.tramp.ti_sysbios_knl_Clock_construct.1)
                  00009ba4    00000008     (.tramp.ti_sysbios_knl_Clock_Params__init__S.1)
                  00009bac    00000008     (.tramp.xdc_runtime_System_abortSpin__E.1)
                  00009bb4    00000008     (.tramp.ti_sysbios_knl_Swi_construct.1)
                  00009bbc    00000008     (.tramp.ti_sysbios_knl_Swi_Params__init__S.1)
                  00009bc4    00000008     (.tramp.ti_sysbios_family_arm_m3_Hwi_construct.1)
                  00009bcc    00000008     (.tramp.ti_sysbios_family_arm_m3_Hwi_Params__init__S.1)
                  00009bd4    00000008     (.tramp.ti_sysbios_knl_Semaphore_construct.1)
                  00009bdc    00000008     (.tramp.ti_sysbios_knl_Semaphore_Params__init__S.1)
                  00009be4    00000008     (.tramp.ti_sysbios_knl_Task_restore__E.1)
                  00009bec    00000008     (.tramp.ti_sysbios_knl_Swi_restore__E.1)
                  00009bf4    00000008     (.tramp.ti_sysbios_knl_Swi_disable__E.1)
                  00009bfc    00000008     (.tramp.ti_sysbios_knl_Task_disable__E.1)

.const     0    00009c04    000005da     
                  00009c04    00000144     BME688_api.obj (.const)
                  00009d48    000000cc     icall.obj (.const)
                  00009e14    0000004c     drivers_cc13xxware.aem3 : PowerCC26XX.oem3 (.const:resourceDB)
                  00009e60    0000004c     ble_user_config.obj (.const:rfDriverTable)
                  00009eac    00000048     app_ble_pem3.oem3 (.const:.string)
                  00009ef4    00000040     adxl_service.obj (.const:.string)
                  00009f34    00000040     bme688service.obj (.const:.string)
                  00009f74    00000040     ccservice.obj (.const:.string)
                  00009fb4    00000034     ysu_sensortag.obj (.const)
                  00009fe8    00000030     board.obj (.const:i2cCC26xxHWAttrs)
                  0000a018    0000002c     gatt_uuid.obj (.const)
                  0000a044    00000027     ble_user_config.obj (.const:txPowerTable)
                  0000a06b    00000001     app_ble_pem3.oem3 (.const:xdc_runtime_Text_charTab__A)
                  0000a06c    00000024     board.obj (.const:I2C_config)
                  0000a090    00000024     app_ble_pem3.oem3 (.const:xdc_runtime_Startup_sfxnTab__A)
                  0000a0b4    00000020     drivers_cc13xxware.aem3 : I2CCC26XX.oem3 (.const)
                  0000a0d4    00000014     devinfoservice.obj (.const:.string)
                  0000a0e8    00000014     RFCC26XX_singleMode.obj (.const)
                  0000a0fc    00000014     adxl_service.obj (.const)
                  0000a110    00000014     ble_user_config.obj (.const)
                  0000a124    00000014     bme688service.obj (.const)
                  0000a138    00000014     ccservice.obj (.const)
                  0000a14c    00000014     devinfoservice.obj (.const)
                  0000a160    00000012     app_ble_pem3.oem3 (.const:xdc_runtime_Startup_sfxnRts__A)
                  0000a172    00000002     app_ble_pem3.oem3 (.const:xdc_runtime_Text_registryModsLastId__C)
                  0000a174    00000010     board.obj (.const:PowerCC26XX_config)
                  0000a184    00000010     board.obj (.const:TRNGCC26XX_config)
                  0000a194    00000010     drivers_cc13xxware.aem3 : I2C.oem3 (.const)
                  0000a1a4    0000000c     app_ble_pem3.oem3 (.const:xdc_runtime_Startup_firstFxns__A)
                  0000a1b0    00000004     board.obj (.const:BoardGpioInitTable)
                  0000a1b4    00000004     board.obj (.const:TRNGCC26XXHWAttrs)
                  0000a1b8    00000004     icall_cc2650.obj (.const)
                  0000a1bc    00000004     app_ble_pem3.oem3 (.const:ti_sysbios_knl_Clock_tickPeriod__C)
                  0000a1c0    00000004     app_ble_pem3.oem3 (.const:ti_sysbios_knl_Clock_triggerClock__C)
                  0000a1c4    00000004     app_ble_pem3.oem3 (.const:ti_sysbios_knl_Idle_funcList__A)
                  0000a1c8    00000004     app_ble_pem3.oem3 (.const:xdc_runtime_SysCallback_flushFxn__C)
                  0000a1cc    00000004     app_ble_pem3.oem3 (.const:xdc_runtime_SysCallback_putchFxn__C)
                  0000a1d0    00000004     app_ble_pem3.oem3 (.const:xdc_runtime_SysCallback_readyFxn__C)
                  0000a1d4    00000004     app_ble_pem3.oem3 (.const:xdc_runtime_System_extendFxn__C)
                  0000a1d8    00000004     app_ble_pem3.oem3 (.const:xdc_runtime_Text_visitRopeFxn__C)
                  0000a1dc    00000002     app_ble_pem3.oem3 (.const:xdc_runtime_Text_unnamedModsLastId__C)

.cinit     0    0000a1e0    00000920     
                  0000a1e0    00000791     (.cinit..data.load) [load image, compression = rle]
                  0000a971    00000007     --HOLE-- [fill = 0]
                  0000a978    0000002d     (.cinit..data:ti_sysbios_family_arm_m3_Hwi_Module__state__V.load) [load image, compression = rle]
                  0000a9a5    00000003     --HOLE-- [fill = 0]
                  0000a9a8    0000002c     (.cinit..data:ti_sysbios_knl_Task_Module__state__V.load) [load image, compression = rle]
                  0000a9d4    00000004     --HOLE-- [fill = 0]
                  0000a9d8    00000021     (.cinit..data:ti_sysbios_knl_Clock_Module__state__V.load) [load image, compression = rle]
                  0000a9f9    00000007     --HOLE-- [fill = 0]
                  0000aa00    0000001f     (.cinit..data:ti_sysbios_BIOS_Module__state__V.load) [load image, compression = rle]
                  0000aa1f    00000001     --HOLE-- [fill = 0]
                  0000aa20    00000011     (.cinit..data:ti_sysbios_knl_Swi_Module__state__V.load) [load image, compression = rle]
                  0000aa31    00000007     --HOLE-- [fill = 0]
                  0000aa38    0000000d     (.cinit..data:ti_sysbios_family_arm_cc26xx_Timer_Module__state__V.load) [load image, compression = rle]
                  0000aa45    00000003     --HOLE-- [fill = 0]
                  0000aa48    0000000c     (__TI_handler_table)
                  0000aa54    00000004     --HOLE-- [fill = 0]
                  0000aa58    0000000a     (.cinit..data:xdc_runtime_Memory_Module__state__V.load) [load image, compression = rle]
                  0000aa62    00000006     --HOLE-- [fill = 0]
                  0000aa68    00000009     (.cinit..data:ti_sysbios_family_arm_cc26xx_TimestampProvider_Module__state__V.load) [load image, compression = rle]
                  0000aa71    00000007     --HOLE-- [fill = 0]
                  0000aa78    00000009     (.cinit..data:xdc_runtime_Startup_Module__state__V.load) [load image, compression = rle]
                  0000aa81    00000007     --HOLE-- [fill = 0]
                  0000aa88    00000009     (.cinit..data:xdc_runtime_System_Module__state__V.load) [load image, compression = rle]
                  0000aa91    00000007     --HOLE-- [fill = 0]
                  0000aa98    00000008     (.cinit..bss.load) [load image, compression = zero_init]
                  0000aaa0    00000060     (__TI_cinit_table)

.init_array 
*          0    00000000    00000000     UNINITIALIZED

.ccfg      0    0001ffa8    00000058     
                  0001ffa8    00000058     ccfg_app_ble.obj (.ccfg:retain)

.vecs      0    20000000    000000c8     NOLOAD SECTION
                  20000000    000000c8     app_ble_pem3.oem3 (.vecs)

.data:ti_sysbios_knl_Task_Module__state__V 
*          0    20000100    00000044     UNINITIALIZED
                  20000100    00000044     app_ble_pem3.oem3 (.data:ti_sysbios_knl_Task_Module__state__V)

.data:ti_sysbios_family_arm_m3_Hwi_Module__state__V 
*          0    20000144    00000034     UNINITIALIZED
                  20000144    00000034     app_ble_pem3.oem3 (.data:ti_sysbios_family_arm_m3_Hwi_Module__state__V)

.data:ti_sysbios_knl_Clock_Module__state__V 
*          0    20000178    0000002c     UNINITIALIZED
                  20000178    0000002c     app_ble_pem3.oem3 (.data:ti_sysbios_knl_Clock_Module__state__V)

.data:ti_sysbios_BIOS_Module__state__V 
*          0    200001a4    00000024     UNINITIALIZED
                  200001a4    00000024     app_ble_pem3.oem3 (.data:ti_sysbios_BIOS_Module__state__V)

.data:ti_sysbios_knl_Swi_Module__state__V 
*          0    200001c8    0000001c     UNINITIALIZED
                  200001c8    0000001c     app_ble_pem3.oem3 (.data:ti_sysbios_knl_Swi_Module__state__V)

.data:ti_sysbios_family_arm_cc26xx_Timer_Module__state__V 
*          0    200001e4    00000008     UNINITIALIZED
                  200001e4    00000008     app_ble_pem3.oem3 (.data:ti_sysbios_family_arm_cc26xx_Timer_Module__state__V)

.data:ti_sysbios_family_arm_cc26xx_TimestampProvider_Module__state__V 
*          0    200001ec    00000004     UNINITIALIZED
                  200001ec    00000004     app_ble_pem3.oem3 (.data:ti_sysbios_family_arm_cc26xx_TimestampProvider_Module__state__V)

.data:xdc_runtime_Startup_Module__state__V 
*          0    200001f0    00000008     UNINITIALIZED
                  200001f0    00000008     app_ble_pem3.oem3 (.data:xdc_runtime_Startup_Module__state__V)

.data:xdc_runtime_System_Module__state__V 
*          0    200001f8    00000008     UNINITIALIZED
                  200001f8    00000008     app_ble_pem3.oem3 (.data:xdc_runtime_System_Module__state__V)

.data:xdc_runtime_Memory_Module__state__V 
*          0    20000200    00000004     UNINITIALIZED
                  20000200    00000004     app_ble_pem3.oem3 (.data:xdc_runtime_Memory_Module__state__V)

.data      0    20000208    00001e81     UNINITIALIZED
                  20000208    000004cc     ysu_sensortag.obj (.data)
                  200006d4    00000460     bme688.obj (.data)
                  20000b34    00000364     simple_peripheral.obj (.data)
                  20000e98    0000031c     peripheral.obj (.data)
                  200011b4    000002b8     adxl343.obj (.data)
                  2000146c    00000004     ble_user_config.obj (.data)
                  20001470    00000230     RFCC26XX_singleMode.obj (.data)
                  200016a0    000001e0     devinfoservice.obj (.data)
                  20001880    00000110     drivers_cc13xxware.aem3 : PowerCC26XX.oem3 (.data:PowerCC26XX_module)
                  20001990    0000010c     icall.obj (.data)
                  20001a9c    000000fc     ccservice.obj (.data)
                  20001b98    000000f0     bme688service.obj (.data)
                  20001c88    000000ec     adxl_service.obj (.data)
                  20001d74    000000d0     app_ble_pem3.oem3 (.data)
                  20001e44    00000054     ble_user_config.obj (.data:rfRegTbl)
                  20001e98    0000004c     app_ble_pem3.oem3 (.data:ti_sysbios_knl_Task_Object__table__V)
                  20001ee4    00000004     drivers_cc13xxware.aem3 : I2C.oem3 (.data)
                  20001ee8    00000048     app_ble_pem3.oem3 (.data:ti_sysbios_family_arm_cc26xx_Timer_Object__table__V)
                  20001f30    00000038     app_ble_pem3.oem3 (.data:ti_sysbios_gates_GateMutex_Object__table__V)
                  20001f68    00000030     main.obj (.data)
                  20001f98    00000030     app_ble_pem3.oem3 (.data:ti_sysbios_knl_Swi_Module_State_0_readyQ__A)
                  20001fc8    00000030     app_ble_pem3.oem3 (.data:ti_sysbios_knl_Swi_Object__table__V)
                  20001ff8    00000030     app_ble_pem3.oem3 (.data:ti_sysbios_knl_Task_Module_State_0_readyQ__A)
                  20002028    00000030     main.obj (.data:user0Cfg)
                  20002058    0000000c     icall_api.obj (.data)
                  20002064    00000008     icall_cc2650.obj (.data)
                  2000206c    00000008     rtsv7M3_T_le_eabi.lib : _lock.obj (.data)
                  20002074    00000008                           : exit.obj (.data)
                  2000207c    00000008     app_ble_pem3.oem3 (.data:xdc_runtime_Registry_Module__state__V)
                  20002084    00000004     rtsv7M3_T_le_eabi.lib : stkdepth_vars.obj (.data)
                  20002088    00000001     TRNGCC26XX.obj (.data)

.bss       0    20002090    00000c46     UNINITIALIZED
                  20002090    00000680     app_ble_pem3.oem3 (.bss:ti_sysbios_heaps_HeapMem_Instance_State_0_buf__A)
                  20002710    00000200     app_ble_pem3.oem3 (.bss:taskStackSection)
                  20002910    000001c0     board.obj (.bss:i2cCC26xxObjects)
                  20002ad0    00000110     PINCC26XX.obj (.bss)
                  20002be0    000000c8     app_ble_pem3.oem3 (.bss:ti_sysbios_family_arm_m3_Hwi_dispatchTable)
                  20002ca8    00000014     driverlib.lib : osc.obj (.bss:oscHfGlobals)
                  20002cbc    00000008                   : sys_ctrl.obj (.bss:powerQualGlobals)
                  20002cc4    00000004     (.common:dispatchInUs$15)
                  20002cc8    00000004     (.common:gBME)
                  20002ccc    00000004     (.common:i2c_devices)
                  20002cd0    00000004     (.common:trngCC26XXObjects)
                  20002cd4    00000001     (.common:bRestart$15)
                  20002cd5    00000001     (.common:driverlib_release_0_46593)

.vtable    0    20002cd6    00000000     UNINITIALIZED

.vtable_ram 
*          0    20002cd6    00000000     UNINITIALIZED

vtable_ram 
*          0    20002cd6    00000000     UNINITIALIZED

.sysmem    0    20002cd6    00000000     UNINITIALIZED

.nonretenvar 
*          0    20002cd6    00000000     UNINITIALIZED

.stack     0    20003f48    00000400     UNINITIALIZED
                  20003f48    00000400     --HOLE--

.bootVecs 
*          0    00000000    00000008     DSECT
                  00000000    00000008     boot.aem3 : boot.oem3 (.bootVecs)

xdc.meta   0    00000000    00000107     COPY SECTION
                  00000000    00000107     app_ble_pem3.oem3 (xdc.meta)

xdc.noload 
*          0    00000000    00000000     COPY SECTION


LINKER GENERATED COPY TABLES

__TI_cinit_table @ 0000aaa0 records: 12, size/record: 8, table size: 96
	.data: load addr=0000a1e0, load size=00000791 bytes, run addr=20000208, run size=00001e81 bytes, compression=rle
	.data:ti_sysbios_family_arm_m3_Hwi_Module__state__V: load addr=0000a978, load size=0000002d bytes, run addr=20000144, run size=00000034 bytes, compression=rle
	.data:ti_sysbios_knl_Task_Module__state__V: load addr=0000a9a8, load size=0000002c bytes, run addr=20000100, run size=00000044 bytes, compression=rle
	.data:ti_sysbios_knl_Clock_Module__state__V: load addr=0000a9d8, load size=00000021 bytes, run addr=20000178, run size=0000002c bytes, compression=rle
	.data:ti_sysbios_BIOS_Module__state__V: load addr=0000aa00, load size=0000001f bytes, run addr=200001a4, run size=00000024 bytes, compression=rle
	.data:ti_sysbios_knl_Swi_Module__state__V: load addr=0000aa20, load size=00000011 bytes, run addr=200001c8, run size=0000001c bytes, compression=rle
	.data:ti_sysbios_family_arm_cc26xx_Timer_Module__state__V: load addr=0000aa38, load size=0000000d bytes, run addr=200001e4, run size=00000008 bytes, compression=rle
	.data:xdc_runtime_Memory_Module__state__V: load addr=0000aa58, load size=0000000a bytes, run addr=20000200, run size=00000004 bytes, compression=rle
	.data:ti_sysbios_family_arm_cc26xx_TimestampProvider_Module__state__V: load addr=0000aa68, load size=00000009 bytes, run addr=200001ec, run size=00000004 bytes, compression=rle
	.data:xdc_runtime_Startup_Module__state__V: load addr=0000aa78, load size=00000009 bytes, run addr=200001f0, run size=00000008 bytes, compression=rle
	.data:xdc_runtime_System_Module__state__V: load addr=0000aa88, load size=00000009 bytes, run addr=200001f8, run size=00000008 bytes, compression=rle
	.bss: load addr=0000aa98, load size=00000008 bytes, run addr=20002090, run size=00000c46 bytes, compression=zero_init


LINKER GENERATED HANDLER TABLE

__TI_handler_table @ 0000aa48 records: 3, size/record: 4, table size: 12
	index: 0, handler: __TI_decompress_rle24
	index: 1, handler: __TI_decompress_none
	index: 2, handler: __TI_zero_init


FAR CALL TRAMPOLINES

callee name               trampoline name
   callee addr  tramp addr   call addr  call info
--------------  -----------  ---------  ----------------
ti_sysbios_family_arm_m3_Hwi_disableFxn__E  $Tramp$TT$L$PI$$ti_sysbios_family_arm_m3_Hwi_disableFxn__E
   1001c145     00000684     00000568   RFCC26XX_singleMode.obj (.text:fsmActiveState$15)
                             000005ee   RFCC26XX_singleMode.obj (.text:fsmActiveState$15)
                             00001ea4   RFCC26XX_singleMode.obj (.text:abortCmd$15)
                             00002504   RFCC26XX_singleMode.obj (.text:RF_postCmd)
                             000025bc   RFCC26XX_singleMode.obj (.text:RF_postCmd)
                             00002fc0   drivers_cc13xxware.aem3 : I2CCC26XX.oem3 (.text:I2CCC26XX_open)
                             000036fe                           : PowerCC26XX.oem3 (.text:Power_releaseDependency)
                             000037d2                           : PowerCC26XX.oem3 (.text:Power_setDependency)
                             00003bbe   RFCC26XX_singleMode.obj (.text:swiFxnHw$15)
                             00003ca0   drivers_cc13xxware.aem3 : I2CCC26XX.oem3 (.text:I2CCC26XX_transfer)
                             00003d74   RFCC26XX_singleMode.obj (.text:RF_open)
                             00003ff4   PINCC26XX.obj (.text:PINCC26XX_setIoCfg$14)
                             00004c26   drivers_cc13xxware.aem3 : I2CCC26XX.oem3 (.text:I2CCC26XX_cancel)
                             00004d3c                           : PowerCC26XX.oem3 (.text:switchXOSCHFclockFunc)
                             00005216   TRNGCC26XX.obj (.text:TRNGCC26XX_getNumber)
                             00005ef0   drivers_cc13xxware.aem3 : I2CCC26XX.oem3 (.text:I2CCC26XX_close)
                             00006282   RFCC26XX_singleMode.obj (.text:RF_getCurrentTime)
                             000065d0   RFCC26XX_singleMode.obj (.text:decActiveClientCnt$15)
                             000067a2   drivers_cc13xxware.aem3 : PowerCC26XX_calibrateRCOSC.oem3 (.text:PowerCC26XX_initiateCalibration)
                             00006990   RFCC26XX_singleMode.obj (.text:ratChanFree$15)
                             00006bca   RFCC26XX_singleMode.obj (.text:RF_getInfo)
                             00007376   drivers_cc13xxware.aem3 : PowerCC26XX.oem3 (.text:PowerCC26XX_isStableXOSC_HF)
                             000073c4   RFCC26XX_singleMode.obj (.text:RF_getRssi)
                             00007654   RFCC26XX_singleMode.obj (.text:postDirImmCmd$15)
                             00007b46   RFCC26XX_singleMode.obj (.text:Q_push$15)
                             00007b4e   RFCC26XX_singleMode.obj (.text:Q_push$15)
                             00007ec4   drivers_cc13xxware.aem3 : PowerCC26XX.oem3 (.text:Power_releaseConstraint)
                             00007ef4                           : PowerCC26XX.oem3 (.text:Power_setConstraint)
                             0000874e                           : PowerCC26XX.oem3 (.text:PowerCC26XX_switchXOSC_HF)
                             000087ee   TRNGCC26XX.obj (.text:TRNGCC26XX_init)
                             00008d04   drivers_cc13xxware.aem3 : PowerCC26XX.oem3 (.text:Power_unregisterNotify)
                             00008fae   TRNGCC26XX.obj (.text:TRNGCC26XX_open)
                             00009028   icall.obj (.text:ICall_enterCSImpl)
                             00009330   RFCC26XX_singleMode.obj (.text:Q_pop$15)
                             000096fe   icall.obj (.text:ICall_primDisableMInt$23)
                             00009a02   tirtosport.aem3 : HwiP_tirtos.oem3 (.text:HwiP_disable)
ti_sysbios_family_arm_m3_Hwi_restoreFxn__E  $Tramp$TT$L$PI$$ti_sysbios_family_arm_m3_Hwi_restoreFxn__E
   1001c215     0000068c     0000058e   RFCC26XX_singleMode.obj (.text:fsmActiveState$15)
                             00000602   RFCC26XX_singleMode.obj (.text:fsmActiveState$15)
                             00001f04   RFCC26XX_singleMode.obj (.text:abortCmd$15)
                             00001f2c   RFCC26XX_singleMode.obj (.text:abortCmd$15)
                             00001f60   RFCC26XX_singleMode.obj (.text:abortCmd$15)
                             00001fe4   RFCC26XX_singleMode.obj (.text:abortCmd$15)
                             00002014   RFCC26XX_singleMode.obj (.text:abortCmd$15)
                             000025a8   RFCC26XX_singleMode.obj (.text:RF_postCmd)
                             000025da   RFCC26XX_singleMode.obj (.text:RF_postCmd)
                             00002646   RFCC26XX_singleMode.obj (.text:RF_postCmd)
                             00002fcc   drivers_cc13xxware.aem3 : I2CCC26XX.oem3 (.text:I2CCC26XX_open)
                             00002fdc                           : I2CCC26XX.oem3 (.text:I2CCC26XX_open)
                             000037b2                           : PowerCC26XX.oem3 (.text:Power_releaseDependency)
                             00003882                           : PowerCC26XX.oem3 (.text:Power_setDependency)
                             00003c0e   RFCC26XX_singleMode.obj (.text:swiFxnHw$15)
                             00003c2c   RFCC26XX_singleMode.obj (.text:swiFxnHw$15)
                             00003cb4   drivers_cc13xxware.aem3 : I2CCC26XX.oem3 (.text:I2CCC26XX_transfer)
                             00003cc6                           : I2CCC26XX.oem3 (.text:I2CCC26XX_transfer)
                             00003d7c   RFCC26XX_singleMode.obj (.text:RF_open)
                             00003d8a   RFCC26XX_singleMode.obj (.text:RF_open)
                             00004014   PINCC26XX.obj (.text:PINCC26XX_setIoCfg$14)
                             00004c96   drivers_cc13xxware.aem3 : I2CCC26XX.oem3 (.text:I2CCC26XX_cancel)
                             00004db2                           : PowerCC26XX.oem3 (.text:switchXOSCHFclockFunc)
                             0000527a   TRNGCC26XX.obj (.text:TRNGCC26XX_getNumber)
                             00005ef8   drivers_cc13xxware.aem3 : I2CCC26XX.oem3 (.text:I2CCC26XX_close)
                             00006292   RFCC26XX_singleMode.obj (.text:RF_getCurrentTime)
                             0000629a   RFCC26XX_singleMode.obj (.text:RF_getCurrentTime)
                             00006618   RFCC26XX_singleMode.obj (.text:decActiveClientCnt$15)
                             000067b6   drivers_cc13xxware.aem3 : PowerCC26XX_calibrateRCOSC.oem3 (.text:PowerCC26XX_initiateCalibration)
                             000069d2   RFCC26XX_singleMode.obj (.text:ratChanFree$15)
                             00006c06   RFCC26XX_singleMode.obj (.text:RF_getInfo)
                             0000739e   drivers_cc13xxware.aem3 : PowerCC26XX.oem3 (.text:PowerCC26XX_isStableXOSC_HF)
                             000073d4   RFCC26XX_singleMode.obj (.text:RF_getRssi)
                             0000766c   RFCC26XX_singleMode.obj (.text:postDirImmCmd$15)
                             00007680   RFCC26XX_singleMode.obj (.text:postDirImmCmd$15)
                             00007b64   RFCC26XX_singleMode.obj (.text:Q_push$15)
                             00007ee4   drivers_cc13xxware.aem3 : PowerCC26XX.oem3 (.text:Power_releaseConstraint)
                             00007f14                           : PowerCC26XX.oem3 (.text:Power_setConstraint)
                             0000876a                           : PowerCC26XX.oem3 (.text:PowerCC26XX_switchXOSC_HF)
                             00008806   TRNGCC26XX.obj (.text:TRNGCC26XX_init)
                             000088ac   drivers_cc13xxware.aem3 : List.oem3 (.text:List_put)
                             00008d14                           : PowerCC26XX.oem3 (.text:Power_unregisterNotify)
                             00008fba   TRNGCC26XX.obj (.text:TRNGCC26XX_open)
                             0000933c   RFCC26XX_singleMode.obj (.text:Q_pop$15)
                             0000946a   icall.obj (.text:ICall_leaveCSImpl)
ti_sysbios_knl_Clock_setTimeout__E  $Tramp$TT$L$PI$$ti_sysbios_knl_Clock_setTimeout__E
   1001c2bd     00000694     000005c4   RFCC26XX_singleMode.obj (.text:fsmActiveState$15)
                             000025f8   RFCC26XX_singleMode.obj (.text:RF_postCmd)
                             00002b1a   drivers_cc13xxware.aem3 : PowerCC26XX.oem3 (.text:Power_init)
                             00003e42   power_cc13xx_tirtos.aem3 : PowerCC26XX_tirtos.oem3 (.text:PowerCC26XX_standbyPolicy)
                             00004d84   drivers_cc13xxware.aem3 : PowerCC26XX.oem3 (.text:switchXOSCHFclockFunc)
                             00004f9e                           : PowerCC26XX.oem3 (.text:disableLFClockQualifiers)
                             000051fc   icall.obj (.text:ICall_primSetTimer$23)
                             0000660c   RFCC26XX_singleMode.obj (.text:decActiveClientCnt$15)
                             000068c8   drivers_cc13xxware.aem3 : PowerCC26XX.oem3 (.text:configureXOSCHF)
                             0000690e   RFCC26XX_singleMode.obj (.text:fsmXOSCState$15)
                             0000780a   util.obj (.text:Util_restartClock)
ti_sysbios_knl_Clock_start__E  $Tramp$TT$L$PI$$ti_sysbios_knl_Clock_start__E
   1001bfdf     0000069c     000005cc   RFCC26XX_singleMode.obj (.text:fsmActiveState$15)
                             000021ae   drivers_cc13xxware.aem3 : PowerCC26XX_calibrateRCOSC.oem3 (.text:PowerCC26XX_doCalibrate)
                             00002600   RFCC26XX_singleMode.obj (.text:RF_postCmd)
                             00002b20   drivers_cc13xxware.aem3 : PowerCC26XX.oem3 (.text:Power_init)
                             00003e48   power_cc13xx_tirtos.aem3 : PowerCC26XX_tirtos.oem3 (.text:PowerCC26XX_standbyPolicy)
                             00004d8a   drivers_cc13xxware.aem3 : PowerCC26XX.oem3 (.text:switchXOSCHFclockFunc)
                             00004fa4                           : PowerCC26XX.oem3 (.text:disableLFClockQualifiers)
                             00005202   icall.obj (.text:ICall_primSetTimer$23)
                             00006612   RFCC26XX_singleMode.obj (.text:decActiveClientCnt$15)
                             000068ce   drivers_cc13xxware.aem3 : PowerCC26XX.oem3 (.text:configureXOSCHF)
                             00006914   RFCC26XX_singleMode.obj (.text:fsmXOSCState$15)
                             00007810   util.obj (.text:Util_restartClock)
                             00008db2   rom_sysbios.aem3 : rom_sysbios.obj (.text:ti_sysbios_knl_Clock_stop__E)
                             00009a16   util.obj (.text:Util_startClock)
xdc_runtime_Core_assignParams__I  $Tramp$TT$L$PI$$xdc_runtime_Core_assignParams__I
   1001c5ed     00009a3c     000098bc   rom_sysbios.aem3 : rom_sysbios_config.obj (.text:ti_sysbios_hal_Hwi_Params__init__S)
ti_sysbios_hal_Hwi_HwiProxy_enableInterrupt__E  $Tramp$TT$L$PI$$ti_sysbios_hal_Hwi_HwiProxy_enableInterrupt__E
   1001c281     00009a44     00009814   icall.obj (.text:ICall_primEnableInt$23)
ti_sysbios_hal_Hwi_HwiProxy_disableInterrupt__E  $Tramp$TT$L$PI$$ti_sysbios_hal_Hwi_HwiProxy_disableInterrupt__E
   1001c27d     00009a4c     00009808   icall.obj (.text:ICall_primDisableInt$23)
ti_sysbios_knl_Queue_construct  $Tramp$TT$L$PI$$ti_sysbios_knl_Queue_construct
   1001b8f1     00009a54     00009752   util.obj (.text:Util_constructQueue)
ti_sysbios_knl_Task_enable__E  $Tramp$TT$L$PI$$ti_sysbios_knl_Task_enable__E
   1001c23f     00009a5c     0000970c   icall.obj (.text:ICall_primEnableMInt$23)
ti_sysbios_family_arm_m3_Hwi_enableFxn__E  $Tramp$TT$L$PI$$ti_sysbios_family_arm_m3_Hwi_enableFxn__E
   1001c151     00009a64     00009708   icall.obj (.text:ICall_primEnableMInt$23)
xdc_runtime_Startup_startMods__I  $Tramp$TT$L$PI$$xdc_runtime_Startup_startMods__I
   1001c309     00009a6c     000095b2   app_ble_pem3.oem3 (.text:xdc_runtime_Startup_exec__I)
ti_sysbios_knl_Clock_logTick__E  $Tramp$TT$L$PI$$ti_sysbios_knl_Clock_logTick__E
   1001be63     00009a74     00009572   app_ble_pem3.oem3 (.text:ti_sysbios_knl_Clock_doTick__I)
ti_sysbios_BIOS_RtsGateProxy_leave__E  $Tramp$TT$L$PI$$ti_sysbios_BIOS_RtsGateProxy_leave__E
   1001c249     00009a7c     00009412   app_ble_pem3.oem3 (.text:ti_sysbios_BIOS_rtsUnlock__I)
ti_sysbios_knl_Queue_get__E  $Tramp$TT$L$PI$$ti_sysbios_knl_Queue_get__E
   1001bf0d     00009a84     0000906e   util.obj (.text:Util_dequeueMsg)
ti_sysbios_BIOS_RtsGateProxy_enter__E  $Tramp$TT$L$PI$$ti_sysbios_BIOS_RtsGateProxy_enter__E
   1001c245     00009a8c     00008d86   app_ble_pem3.oem3 (.text:ti_sysbios_BIOS_rtsLock__I)
ti_sysbios_knl_Queue_put__E  $Tramp$TT$L$PI$$ti_sysbios_knl_Queue_put__E
   1001bf29     00009a94     00008508   util.obj (.text:Util_enqueueMsg)
ti_sysbios_knl_Task_startup__E  $Tramp$TT$L$PI$$ti_sysbios_knl_Task_startup__E
   1001c305     00009a9c     00007fa4   app_ble_pem3.oem3 (.text:ti_sysbios_BIOS_startFunc__I)
ti_sysbios_knl_Swi_startup__E  $Tramp$TT$L$PI$$ti_sysbios_knl_Swi_startup__E
   1001c239     00009aa4     00007fa0   app_ble_pem3.oem3 (.text:ti_sysbios_BIOS_startFunc__I)
ti_sysbios_hal_Hwi_HwiProxy_startup__E  $Tramp$TT$L$PI$$ti_sysbios_hal_Hwi_HwiProxy_startup__E
   1001c289     00009aac     00007f9c   app_ble_pem3.oem3 (.text:ti_sysbios_BIOS_startFunc__I)
ti_sysbios_family_arm_cc26xx_Timer_startup__E  $Tramp$TT$L$PI$$ti_sysbios_family_arm_cc26xx_Timer_startup__E
   1001b791     00009ab4     00007f98   app_ble_pem3.oem3 (.text:ti_sysbios_BIOS_startFunc__I)
xdc_runtime_System_atexit__E  $Tramp$TT$L$PI$$xdc_runtime_System_atexit__E
   1001c67d     00009abc     00007f90   app_ble_pem3.oem3 (.text:ti_sysbios_BIOS_startFunc__I)
ti_sysbios_BIOS_setThreadType__E  $Tramp$TT$L$PI$$ti_sysbios_BIOS_setThreadType__E
   1001c041     00009ac4     00007f5c   app_ble_pem3.oem3 (.text:ti_sysbios_BIOS_atExitFunc__I)
                             000094c4   app_ble_pem3.oem3 (.text:ti_sysbios_BIOS_exitFunc__I)
ti_sysbios_hal_Hwi_create  $Tramp$TT$L$PI$$ti_sysbios_hal_Hwi_create
   1001ab79     00009acc     00007a20   icall.obj (.text:ICall_primRegisterISR$23)
                             00007a54   icall.obj (.text:ICall_primRegisterISR_Ext$23)
ti_sysbios_knl_Task_construct  $Tramp$TT$L$PI$$ti_sysbios_knl_Task_construct
   1001b125     00009ad4     00007362   peripheral.obj (.text:GAPRole_createTask)
                             00007460   adxl343.obj (.text:ADXL_createTask)
                             0000749c   bme688.obj (.text:BME_createTask)
                             00007640   ysu_sensortag.obj (.text:SensorTag_createTask)
xdc_runtime_System_exit__E  $Tramp$TT$L$PI$$xdc_runtime_System_exit__E
   1001c7cd     00009adc     0000720c   boot.aem3 : boot.oem3 (.text)
                             000094ca   app_ble_pem3.oem3 (.text:ti_sysbios_BIOS_exitFunc__I)
ti_sysbios_BIOS_getCpuFreq__E  $Tramp$TT$L$PI$$ti_sysbios_BIOS_getCpuFreq__E
   1001bff5     00009ae4     00006fb0   drivers_cc13xxware.aem3 : I2CCC26XX.oem3 (.text:I2CCC26XX_initHw)
ti_sysbios_knl_Semaphore_create  $Tramp$TT$L$PI$$ti_sysbios_knl_Semaphore_create
   1001b5a9     00009aec     00006d70   icall.obj (.text:ICall_newTask$23)
ti_sysbios_knl_Semaphore_destruct  $Tramp$TT$L$PI$$ti_sysbios_knl_Semaphore_destruct
   1001c2dd     00009af4     00005ed8   drivers_cc13xxware.aem3 : I2CCC26XX.oem3 (.text:I2CCC26XX_close)
                             00005ee4                           : I2CCC26XX.oem3 (.text:I2CCC26XX_close)
ti_sysbios_knl_Swi_destruct  $Tramp$TT$L$PI$$ti_sysbios_knl_Swi_destruct
   1001c2e5     00009afc     00005ed0   drivers_cc13xxware.aem3 : I2CCC26XX.oem3 (.text:I2CCC26XX_close)
ti_sysbios_family_arm_m3_Hwi_destruct  $Tramp$TT$L$PI$$ti_sysbios_family_arm_m3_Hwi_destruct
   1001c25d     00009b04     00005ec8   drivers_cc13xxware.aem3 : I2CCC26XX.oem3 (.text:I2CCC26XX_close)
ti_sysbios_BIOS_start__E  $Tramp$TT$L$PI$$ti_sysbios_BIOS_start__E
   1001c051     00009b0c     00005836   main.obj (.text:main)
ti_sysbios_knl_Task_create  $Tramp$TT$L$PI$$ti_sysbios_knl_Task_create
   1001ae19     00009b14     000054d2   icall.obj (.text:ICall_createRemoteTasks)
                             0000731a   icall.obj (.text:ICall_primCreateTask$23)
ti_sysbios_knl_Task_Params__init__S  $Tramp$TT$L$PI$$ti_sysbios_knl_Task_Params__init__S
   1001c1d5     00009b1c     000054b6   icall.obj (.text:ICall_createRemoteTasks)
                             00007304   icall.obj (.text:ICall_primCreateTask$23)
                             00007342   peripheral.obj (.text:GAPRole_createTask)
                             00007442   adxl343.obj (.text:ADXL_createTask)
                             0000747e   bme688.obj (.text:BME_createTask)
                             00007622   ysu_sensortag.obj (.text:SensorTag_createTask)
ti_sysbios_knl_Clock_create  $Tramp$TT$L$PI$$ti_sysbios_knl_Clock_create
   1001b3e9     00009b24     000051be   icall.obj (.text:ICall_primSetTimer$23)
ti_sysbios_knl_Clock_scheduleNextTick__E  $Tramp$TT$L$PI$$ti_sysbios_knl_Clock_scheduleNextTick__E
   1001beb9     00009b2c     00004ad6   rom_sysbios.aem3 : rom_sysbios.obj (.text:ti_sysbios_knl_Clock_workFuncDynamic__E)
ti_sysbios_knl_Clock_walkQueueDynamic__E  $Tramp$TT$L$PI$$ti_sysbios_knl_Clock_walkQueueDynamic__E
   1001a809     00009b34     00004a9e   rom_sysbios.aem3 : rom_sysbios.obj (.text:ti_sysbios_knl_Clock_workFuncDynamic__E)
                             00004aba                    : rom_sysbios.obj (.text:ti_sysbios_knl_Clock_workFuncDynamic__E)
ti_sysbios_knl_Clock_TimerProxy_getCurrentTick__E  $Tramp$TT$L$PI$$ti_sysbios_knl_Clock_TimerProxy_getCurrentTick__E
   1001c091     00009b3c     00004a6c   rom_sysbios.aem3 : rom_sysbios.obj (.text:ti_sysbios_knl_Clock_workFuncDynamic__E)
                             00008452                    : rom_sysbios.obj (.text:ti_sysbios_knl_Clock_getTicksUntilInterrupt__E)
ti_sysbios_knl_Queue_enqueue__E  $Tramp$TT$L$PI$$ti_sysbios_knl_Queue_enqueue__E
   1001c1b1     00009b44     000047ac   rom_sysbios.aem3 : rom_sysbios.obj (.text:ti_sysbios_knl_Task_setPri__E)
                             00009a2e                    : rom_sysbios.obj (.text:ti_sysbios_knl_Queue_insert__E)
ti_sysbios_knl_Queue_empty__E  $Tramp$TT$L$PI$$ti_sysbios_knl_Queue_empty__E
   1001c10f     00009b4c     00004794   rom_sysbios.aem3 : rom_sysbios.obj (.text:ti_sysbios_knl_Task_setPri__E)
                             00005054   ysu_sensortag.obj (.text:SensorTag_taskFxn$38)
ti_sysbios_knl_Queue_remove__E  $Tramp$TT$L$PI$$ti_sysbios_knl_Queue_remove__E
   1001c11d     00009b54     0000478e   rom_sysbios.aem3 : rom_sysbios.obj (.text:ti_sysbios_knl_Task_setPri__E)
ti_sysbios_family_arm_m3_Hwi_disableInterrupt__E  $Tramp$TT$L$PI$$ti_sysbios_family_arm_m3_Hwi_disableInterrupt__E
   1001b251     00009b5c     00003ce2   drivers_cc13xxware.aem3 : I2CCC26XX.oem3 (.text:I2CCC26XX_transfer)
ti_sysbios_knl_Task_sleep__E  $Tramp$TT$L$PI$$ti_sysbios_knl_Task_sleep__E
   1001a9d9     00009b64     00003a48   bme688.obj (.text:sensorTaskFxn$8)
                             00003ae0   bme688.obj (.text:sensorTaskFxn$8)
                             000053c4   i2c_interface.obj (.text:aquireI2CInterface)
                             00005862   adxl343.obj (.text:sensorTaskFxn$1)
                             0000588e   adxl343.obj (.text:sensorTaskFxn$1)
                             00009674   bme688_driver.obj (.text:bme68x_delay_us)
ti_sysbios_family_arm_m3_Hwi_enableInterrupt__E  $Tramp$TT$L$PI$$ti_sysbios_family_arm_m3_Hwi_enableInterrupt__E
   1001b295     00009b6c     00003a06   RFCC26XX_singleMode.obj (.text:fsmPowerUpState$15)
                             00003cf4   drivers_cc13xxware.aem3 : I2CCC26XX.oem3 (.text:I2CCC26XX_transfer)
ti_sysbios_knl_Swi_post__E  $Tramp$TT$L$PI$$ti_sysbios_knl_Swi_post__E
   1001b31d     00009b74     0000353e   drivers_cc13xxware.aem3 : I2CCC26XX.oem3 (.text:I2CCC26XX_hwiFxn)
                             00003d32                           : I2CCC26XX.oem3 (.text:I2CCC26XX_transfer)
                             00006720                           : I2CCC26XX.oem3 (.text:I2CCC26XX_swiFxn)
                             00009430   rom_sysbios.aem3 : rom_sysbios.obj (.text:ti_sysbios_knl_Swi_or__E)
                             0000957a   app_ble_pem3.oem3 (.text:ti_sysbios_knl_Clock_doTick__I)
ti_sysbios_knl_Semaphore_post__E  $Tramp$TT$L$PI$$ti_sysbios_knl_Semaphore_post__E
   1001ac41     00009b7c     0000327c   icall.obj (.text:ICall_primWaitMatch$23)
                             00003d38   drivers_cc13xxware.aem3 : I2CCC26XX.oem3 (.text:I2CCC26XX_transfer)
                             00004a46   PINCC26XX.obj (.text:PIN_open)
                             000056da   icall.obj (.text:ICall_primSend$23)
                             00005c4c   RFCC26XX_singleMode.obj (.text:fsmPowerDownState$15)
                             00006c5c   RFCC26XX_singleMode.obj (.text:syncCb$15)
                             00008510   util.obj (.text:Util_enqueueMsg)
                             0000939a   peripheral.obj (.text:gapRole_setEvent$31)
                             0000952c   ysu_sensortag.obj (.text:SensorTag_clockHandler$38)
                             0000982c   icall.obj (.text:ICall_primSignal$23)
                             00009944   drivers_cc13xxware.aem3 : I2CCC26XX.oem3 (.text:I2CCC26XX_blockingCallback)
ti_sysbios_knl_Semaphore_pend__E  $Tramp$TT$L$PI$$ti_sysbios_knl_Semaphore_pend__E
   1001a001     00009b84     00003208   icall.obj (.text:ICall_primWaitMatch$23)
                             00003cda   drivers_cc13xxware.aem3 : I2CCC26XX.oem3 (.text:I2CCC26XX_transfer)
                             00003d0a                           : I2CCC26XX.oem3 (.text:I2CCC26XX_transfer)
                             000049d4   PINCC26XX.obj (.text:PIN_open)
                             00005368   RFCC26XX_singleMode.obj (.text:RF_pendCmd)
                             00006a24   icall.obj (.text:ICall_primWait$23)
ti_sysbios_knl_Clock_getTicks__E  $Tramp$TT$L$PI$$ti_sysbios_knl_Clock_getTicks__E
   1001b6d5     00009b8c     000031f4   icall.obj (.text:ICall_primWaitMatch$23)
                             0000325e   icall.obj (.text:ICall_primWaitMatch$23)
                             00009726   icall.obj (.text:ICall_primGetTicks$23)
ti_sysbios_knl_Task_self__E  $Tramp$TT$L$PI$$ti_sysbios_knl_Task_self__E
   1001c1e1     00009b94     000031aa   icall.obj (.text:ICall_primWaitMatch$23)
                             00006164   icall.obj (.text:ICall_primEnroll$23)
                             00006470   icall.obj (.text:ICall_primThreadServes$23)
                             000069e4   icall.obj (.text:ICall_primWait$23)
                             00006b28   icall.obj (.text:ICall_primRegisterApp$23)
                             00006d9c   icall.obj (.text:ICall_primGetEntityId$23)
                             000079d0   icall.obj (.text:ICall_primFetchMsg$23)
ti_sysbios_knl_Clock_construct  $Tramp$TT$L$PI$$ti_sysbios_knl_Clock_construct
   1001b575     00009b9c     00002a76   drivers_cc13xxware.aem3 : PowerCC26XX.oem3 (.text:Power_init)
                             00002a84                           : PowerCC26XX.oem3 (.text:Power_init)
                             00002a92                           : PowerCC26XX.oem3 (.text:Power_init)
                             0000341c   RFCC26XX_singleMode.obj (.text:rf_init$15)
                             00003df0   RFCC26XX_singleMode.obj (.text:RF_open)
                             00005c04   drivers_cc13xxware.aem3 : PowerCC26XX.oem3 (.text:PowerCC26XX_calibrate)
                             00007074   util.obj (.text:Util_constructClock)
ti_sysbios_knl_Clock_Params__init__S  $Tramp$TT$L$PI$$ti_sysbios_knl_Clock_Params__init__S
   1001c181     00009ba4     00002a5e   drivers_cc13xxware.aem3 : PowerCC26XX.oem3 (.text:Power_init)
                             00003de0   RFCC26XX_singleMode.obj (.text:RF_open)
                             000051aa   icall.obj (.text:ICall_primSetTimer$23)
                             00005bec   drivers_cc13xxware.aem3 : PowerCC26XX.oem3 (.text:PowerCC26XX_calibrate)
                             0000704e   util.obj (.text:Util_constructClock)
xdc_runtime_System_abortSpin__E  $Tramp$TT$L$PI$$xdc_runtime_System_abortSpin__E
   1001c895     00009bac     00002120   drivers_cc13xxware.aem3 : PowerCC26XX_calibrateRCOSC.oem3 (.text:PowerCC26XX_doCalibrate)
                             00006242                           : PowerCC26XX_calibrateRCOSC.oem3 (.text:PowerCC26XX_RCOSC_clockFunc)
ti_sysbios_knl_Swi_construct  $Tramp$TT$L$PI$$ti_sysbios_knl_Swi_construct
   1001b085     00009bb4     00001e46   PINCC26XX.obj (.text:PIN_init)
                             00003038   drivers_cc13xxware.aem3 : I2CCC26XX.oem3 (.text:I2CCC26XX_open)
                             000033a8   RFCC26XX_singleMode.obj (.text:rf_init$15)
                             000033ea   RFCC26XX_singleMode.obj (.text:rf_init$15)
ti_sysbios_knl_Swi_Params__init__S  $Tramp$TT$L$PI$$ti_sysbios_knl_Swi_Params__init__S
   1001c1c9     00009bbc     00001e34   PINCC26XX.obj (.text:PIN_init)
                             00003024   drivers_cc13xxware.aem3 : I2CCC26XX.oem3 (.text:I2CCC26XX_open)
                             00003394   RFCC26XX_singleMode.obj (.text:rf_init$15)
                             000033da   RFCC26XX_singleMode.obj (.text:rf_init$15)
ti_sysbios_family_arm_m3_Hwi_construct  $Tramp$TT$L$PI$$ti_sysbios_family_arm_m3_Hwi_construct
   1001af29     00009bc4     00001e28   PINCC26XX.obj (.text:PIN_init)
                             00003018   drivers_cc13xxware.aem3 : I2CCC26XX.oem3 (.text:I2CCC26XX_open)
                             000033ce   RFCC26XX_singleMode.obj (.text:rf_init$15)
                             0000340e   RFCC26XX_singleMode.obj (.text:rf_init$15)
                             00005c14   drivers_cc13xxware.aem3 : PowerCC26XX.oem3 (.text:PowerCC26XX_calibrate)
ti_sysbios_family_arm_m3_Hwi_Params__init__S  $Tramp$TT$L$PI$$ti_sysbios_family_arm_m3_Hwi_Params__init__S
   1001c139     00009bcc     00001e12   PINCC26XX.obj (.text:PIN_init)
                             00003000   drivers_cc13xxware.aem3 : I2CCC26XX.oem3 (.text:I2CCC26XX_open)
                             000033b4   RFCC26XX_singleMode.obj (.text:rf_init$15)
                             000033f6   RFCC26XX_singleMode.obj (.text:rf_init$15)
ti_sysbios_knl_Semaphore_construct  $Tramp$TT$L$PI$$ti_sysbios_knl_Semaphore_construct
   1001b705     00009bd4     00001db0   PINCC26XX.obj (.text:PIN_init)
                             00003054   drivers_cc13xxware.aem3 : I2CCC26XX.oem3 (.text:I2CCC26XX_open)
                             00003064                           : I2CCC26XX.oem3 (.text:I2CCC26XX_open)
                             00003dd4   RFCC26XX_singleMode.obj (.text:RF_open)
ti_sysbios_knl_Semaphore_Params__init__S  $Tramp$TT$L$PI$$ti_sysbios_knl_Semaphore_Params__init__S
   1001c1bd     00009bdc     00001d9c   PINCC26XX.obj (.text:PIN_init)
                             00003044   drivers_cc13xxware.aem3 : I2CCC26XX.oem3 (.text:I2CCC26XX_open)
                             00003dc4   RFCC26XX_singleMode.obj (.text:RF_open)
ti_sysbios_knl_Task_restore__E  $Tramp$TT$L$PI$$ti_sysbios_knl_Task_restore__E
   1001ba45     00009be4     000016d8   drivers_cc13xxware.aem3 : PowerCC26XX.oem3 (.text:Power_sleep)
                             000047da   rom_sysbios.aem3 : rom_sysbios.obj (.text:ti_sysbios_knl_Task_setPri__E)
                             000054f6   icall.obj (.text:ICall_createRemoteTasks)
                             00009472   icall.obj (.text:ICall_leaveCSImpl)
ti_sysbios_knl_Swi_restore__E  $Tramp$TT$L$PI$$ti_sysbios_knl_Swi_restore__E
   1001b5dd     00009bec     000016ce   drivers_cc13xxware.aem3 : PowerCC26XX.oem3 (.text:Power_sleep)
                             00001ff2   RFCC26XX_singleMode.obj (.text:abortCmd$15)
                             00005330   RFCC26XX_singleMode.obj (.text:RF_pendCmd)
                             0000535c   RFCC26XX_singleMode.obj (.text:RF_pendCmd)
                             00005378   RFCC26XX_singleMode.obj (.text:RF_pendCmd)
ti_sysbios_knl_Swi_disable__E  $Tramp$TT$L$PI$$ti_sysbios_knl_Swi_disable__E
   1001c0d1     00009bf4     0000152a   drivers_cc13xxware.aem3 : PowerCC26XX.oem3 (.text:Power_sleep)
                             00001fd0   RFCC26XX_singleMode.obj (.text:abortCmd$15)
                             0000531e   RFCC26XX_singleMode.obj (.text:RF_pendCmd)
                             00007f52   app_ble_pem3.oem3 (.text:ti_sysbios_BIOS_atExitFunc__I)
ti_sysbios_knl_Task_disable__E  $Tramp$TT$L$PI$$ti_sysbios_knl_Task_disable__E
   1001c0f1     00009bfc     00001512   drivers_cc13xxware.aem3 : PowerCC26XX.oem3 (.text:Power_sleep)
                             00004754   rom_sysbios.aem3 : rom_sysbios.obj (.text:ti_sysbios_knl_Task_setPri__E)
                             000054a0   icall.obj (.text:ICall_createRemoteTasks)
                             00007f56   app_ble_pem3.oem3 (.text:ti_sysbios_BIOS_atExitFunc__I)
                             0000901e   icall.obj (.text:ICall_enterCSImpl)
                             000096fa   icall.obj (.text:ICall_primDisableMInt$23)

[61 trampolines]
[257 trampoline calls]


GLOBAL SYMBOLS: SORTED ALPHABETICALLY BY Name 

address   name                                                                      
-------   ----                                                                      
10014c00  A1_rw                                                                     
10019ffe  A2_rw                                                                     
10019ffc  A3_rw                                                                     
20004f2c  A4_rw                                                                     
20004f7c  ACCX                                                                      
20004f80  ACCY                                                                      
20004f84  ACCZ                                                                      
0000856d  ADXL_addService                                                           
00007435  ADXL_createTask                                                           
000088b5  ADXL_getParameter                                                         
00008155  ADXL_init                                                                 
00005a11  ADXL_processCharChangeEvt                                                 
00001b25  ADXL_read                                                                 
000090d5  ADXL_registerAppCBs                                                       
000088d9  ADXL_reset                                                                
000067e9  ADXL_setParameter                                                         
10015229  ATOMICPATTERN                                                             
10016c29  AddRoundKeySubBytes_Sw                                                    
10018a19  AesCcm_authEncrypt_Sw                                                     
10018a35  AesCcm_decryptAuth_Sw                                                     
10018b09  AesCcm_getNumBlocks_Sw                                                    
10018ac5  Aes_decrypt_Sw                                                            
10018a99  Aes_encrypt_Sw                                                            
00006f61  AssertHandler                                                             
00008595  BME_addService                                                            
00007471  BME_createTask                                                            
000085bd  BME_getParameter                                                          
00008181  BME_init                                                                  
00005a7d  BME_processCharChangeEvt                                                  
000090ed  BME_registerAppCBs                                                        
000088fd  BME_reset                                                                 
00006a35  BME_setParameter                                                          
0000a1b0  BoardGpioInitTable                                                        
00007269  C$$EXIT                                                                   
20004f2c  COMMON_RAM_BASE_ADDR                                                      
10014c01  COMMON_ROM_BASE_ADDR                                                      
10015a6d  COPY                                                                      
000085e5  CcService_setParameter                                                    
00001405  DefaultAssertCback                                                        
000094d1  DevInfo_AddService                                                        
000042e1  DevInfo_SetParameter                                                      
10017959  ECC_allocWorkzone                                                         
10017961  ECC_setWin                                                                
10017969  ECDSA_sign                                                                
10017b01  ECDSA_verif                                                               
10015a11  EXPORTOPERAND                                                             
20004f78  EXPW                                                                      
20004f6c  EXPX                                                                      
20004f70  EXPY                                                                      
20004f74  EXPZ                                                                      
10016f58  FFMult2                                                                   
10017058  FFMult3                                                                   
10016d05  FFMult_Sw                                                                 
10018d6c  Fill1                                                                     
00007705  GAPBondMgr_LinkEst                                                        
00008921  GAPBondMgr_LinkTerm                                                       
00008945  GAPBondMgr_Register                                                       
00007931  GAPBondMgr_SetParameter                                                   
00002c85  GAPRole_GetParameter                                                      
0000773d  GAPRole_SendUpdateParam                                                   
00000991  GAPRole_SetParameter                                                      
000094e5  GAPRole_StartDevice                                                       
00009105  GAPRole_TerminateConnection                                               
00007335  GAPRole_createTask                                                        
00006a85  GAP_DeviceInit                                                            
000095bd  GAP_EndDiscoverable                                                       
000074ad  GAP_GetParamValue                                                         
000097bd  GAP_MakeDiscoverable                                                      
00007965  GAP_SetParamValue                                                         
000097c9  GAP_TerminateAuth                                                         
00007159  GAP_TerminateLinkReq                                                      
00006ad5  GAP_UpdateAdvertisingData                                                 
000097d5  GAP_UpdateLinkParamReq                                                    
000097e1  GAP_UpdateLinkParamReqReply                                               
00001381  GATTServApp_AddService                                                    
00009585  GATTServApp_FindAttr                                                      
00008ba1  GATTServApp_InitCharCfg                                                   
00006f15  GATTServApp_ProcessCCCWriteReq                                            
00004af1  GATTServApp_ProcessCharCfg                                                
000095cd  GATTServApp_ReadCharCfg                                                   
000074e9  GATTServApp_RegisterService                                               
0000860d  GATTServApp_WriteCharCfg                                                  
00009939  GATT_Indication                                                           
0000911d  GATT_Notification                                                         
00008bc1  GATT_bm_alloc                                                             
00008e79  GATT_bm_free                                                              
10015141  GETBIT                                                                    
10015155  GETDIGIT                                                                  
100151a5  GETDIGITL2R                                                               
00009979  GGS_AddService                                                            
000097ed  GGS_SetParameter                                                          
200019b4  HEAPMGR_SIZE                                                              
00009a03  HwiP_disable                                                              
UNDEFED   HwiP_restore                                                              
00004c19  I2CCC26XX_cancel                                                          
00005ea5  I2CCC26XX_close                                                           
0000997f  I2CCC26XX_control                                                         
0000a0b4  I2CCC26XX_fxnTable                                                        
000098e9  I2CCC26XX_init                                                            
00002fb1  I2CCC26XX_open                                                            
00003c81  I2CCC26XX_transfer                                                        
000095dd  I2C_Params_init                                                           
000098f3  I2C_close                                                                 
0000a06c  I2C_config                                                                
0000a194  I2C_defaultParams                                                         
00007775  I2C_init                                                                  
00007dd1  I2C_open                                                                  
000098fd  I2C_transfer                                                              
00007525  ICallPlatform_pwrConfigACAction                                           
00009135  ICallPlatform_pwrDispense                                                 
000096dd  ICallPlatform_pwrGetTransitionState                                       
000095ed  ICallPlatform_pwrGetXOSCStartupTime                                       
000096eb  ICallPlatform_pwrIsStableXOSCHF                                           
00006d01  ICallPlatform_pwrRegisterNotify                                           
0000914d  ICallPlatform_pwrRequire                                                  
00009907  ICallPlatform_pwrSwitchXOSCHF                                             
00005609  ICallPlatform_pwrUpdActivityCounter                                       
00005499  ICall_createRemoteTasks                                                   
20001990  ICall_dispatcher                                                          
0000901d  ICall_enterCSImpl                                                         
20001998  ICall_enterCriticalSection                                                
000081ad  ICall_freeImpl                                                            
000081ad  ICall_heapFree                                                            
00005ae9  ICall_heapInit                                                            
00005109  ICall_heapMalloc                                                          
00008635  ICall_init                                                                
00009463  ICall_leaveCSImpl                                                         
2000199c  ICall_leaveCriticalSection                                                
00009985  ICall_mallocImpl                                                          
00007a69  ICall_searchServiceEntity                                                 
10015a35  IMPORTDATA                                                                
100159a9  IMPORTLENGTH                                                              
100159ad  IMPORTMODULUS                                                             
100159d1  IMPORTOPERAND                                                             
1001568d  INVERT                                                                    
10016da1  InvAddRoundKey_Sw                                                         
10016ed5  InvMixColumns_Sw                                                          
10016dc9  InvRoundKey_Sw                                                            
10017264  InvSbox                                                                   
10016ea1  InvShiftRows_Sw                                                           
10016e8d  InvSubBytes_Sw                                                            
100154f5  JACADD                                                                    
20004fe8  LEN                                                                       
100158ac  LUTC                                                                      
100158dc  LUTINCI                                                                   
100158f4  LUTJ                                                                      
1001588c  LUTOPCODE                                                                 
10015894  LUTOPSIGN                                                                 
100158c4  LUTSE                                                                     
1001596c  LUTSTATE                                                                  
0000991b  List_empty                                                                
00009a0b  List_head                                                                 
00009a0f  List_next                                                                 
0000888d  List_put                                                                  
00009051  List_remove                                                               
10018825  MB_ClearInts                                                              
100187f5  MB_DisableInts                                                            
10018835  MB_EnableHWInts                                                           
10018799  MB_EnableInts                                                             
10018945  MB_FwDebugDump                                                            
10018755  MB_Init                                                                   
10018935  MB_ReadMailboxStatus                                                      
1001893d  MB_RegisterIsrCback                                                       
10018865  MB_SendCommand                                                            
100188a5  MB_SendCommandSynch                                                       
20004fe4  MOD                                                                       
20004fd8  MSBMOD                                                                    
10016c79  MixColumns_Sw                                                             
10018b9c  NIST_Curve_P256_Gx                                                        
10018bc0  NIST_Curve_P256_Gy                                                        
10018b54  NIST_Curve_P256_a                                                         
10018b78  NIST_Curve_P256_b                                                         
10018b0c  NIST_Curve_P256_p                                                         
10018b30  NIST_Curve_P256_r                                                         
00008725  NOROM_AONBatMonTemperatureGetDegC                                         
000094f9  NOROM_AONRTCCurrent64BitValueGet                                          
00009225  NOROM_AONRTCCurrentCompareValueGet                                        
00009835  NOROM_CPUcpsid                                                            
00009841  NOROM_CPUcpsie                                                            
0000998b  NOROM_CPUdelay                                                            
00006ff1  NOROM_ChipInfo_GetChipFamily                                              
000058c1  NOROM_ChipInfo_GetHwRevision                                              
0000923d  NOROM_ChipInfo_GetPackageType                                             
000082e1  NOROM_DDI32RegWrite                                                       
0000830d  NOROM_OSCClockSourceGet                                                   
000061c1  NOROM_OSCClockSourceSet                                                   
00005f6d  NOROM_OSCHF_AttemptToSwitchToXosc                                         
00004e55  NOROM_OSCHF_GetStartupTime                                                
00007a9d  NOROM_OSCHF_SwitchToRcOscTurnOffXosc                                      
00009255  NOROM_OSCHF_TurnOnXosc                                                    
00007561  NOROM_OSC_HPOSCRelativeFrequencyOffsetGet                                 
00008ca1  NOROM_RFCAdi3VcoLdoVoltageMode                                            
0000926d  NOROM_RFCCpeIntGetAndClear                                                
00008cc1  NOROM_RFCDoorbellSendTo                                                   
0000354d  NOROM_RFCRTrim                                                            
00003625  NOROM_RFCRfTrimRead                                                       
0000961d  NOROM_RFCRfTrimSet                                                        
0000759d  NOROM_RFCSynthPowerDown                                                   
000044cd  NOROM_SetupAfterColdResetWakeupFromShutDownCfg1                           
0000328d  NOROM_SetupAfterColdResetWakeupFromShutDownCfg2                           
00002901  NOROM_SetupAfterColdResetWakeupFromShutDownCfg3                           
00009285  NOROM_SetupGetTrimForAdcShModeEn                                          
0000929d  NOROM_SetupGetTrimForAdcShVbufEn                                          
00005b55  NOROM_SetupGetTrimForAmpcompCtrl                                          
000092b5  NOROM_SetupGetTrimForAmpcompTh1                                           
00008ee9  NOROM_SetupGetTrimForAmpcompTh2                                           
00005d05  NOROM_SetupGetTrimForAnabypassValue1                                      
000092cd  NOROM_SetupGetTrimForDblrLoopFilterResetVoltage                           
00008339  NOROM_SetupGetTrimForRadcExtCfg                                           
000092e5  NOROM_SetupGetTrimForRcOscLfIBiasTrim                                     
00008f05  NOROM_SetupGetTrimForRcOscLfRtuneCtuneTrim                                
00008ce1  NOROM_SetupGetTrimForXoscHfCtl                                            
0000962d  NOROM_SetupGetTrimForXoscHfFastStart                                      
0000963d  NOROM_SetupGetTrimForXoscHfIbiastherm                                     
000092fd  NOROM_SetupGetTrimForXoscLfRegulatorAndCmirrwrRatio                       
00007e91  NOROM_SetupSetAonRtcSubSecInc                                             
00006b75  NOROM_SetupSetCacheModeAccordingToCcfgSetting                             
00005931  NOROM_SetupSetVddrLevel                                                   
00009731  NOROM_SetupSignExtendVddrTrimValue                                        
00004385  NOROM_SetupTrimDevice                                                     
000064b9  NOROM_SysCtrlAdjustRechargeAfterPowerDown                                 
00000bcd  NOROM_SysCtrlSetRechargeBeforePowerDown                                   
00005d6d  NOROM_SysCtrl_DCDC_VoltageConditionalControl                              
00007ad1  NOROM_TRNGConfigure                                                       
0000948f  NOROM_ThisCodeIsBuiltForCC13xxHwRev20AndLater_HaltIfViolated              
0000973f  NOROM_VIMSModeGet                                                         
10014c04  P1_ro                                                                     
10019ffe  P1_ro_2                                                                   
20004f40  P2_rw                                                                     
20004f40  P2_s0                                                                     
20004fac  P2_zi                                                                     
000089b1  PINCC26XX_getPinCount                                                     
00008365  PINCC26XX_setMux                                                          
20002b64  PIN_HandleTable                                                           
20002ad0  PIN_NumPins                                                               
00008dff  PIN_close                                                                 
00001ce9  PIN_init                                                                  
000049c1  PIN_open                                                                  
00006739  PIN_remove                                                                
00008391  PIN_setConfig                                                             
00007b05  PIN_setOutputValue                                                        
00006221  PowerCC26XX_RCOSC_clockFunc                                               
000056f1  PowerCC26XX_auxISR                                                        
00005bc1  PowerCC26XX_calibrate                                                     
0000a174  PowerCC26XX_config                                                        
00002039  PowerCC26XX_doCalibrate                                                   
00004e55  PowerCC26XX_getXoscStartupTime                                            
00006791  PowerCC26XX_initiateCalibration                                           
00007375  PowerCC26XX_isStableXOSC_HF                                               
20001880  PowerCC26XX_module                                                        
00003e05  PowerCC26XX_standbyPolicy                                                 
0000874d  PowerCC26XX_switchXOSC_HF                                                 
0000984d  Power_getConstraintMask                                                   
00009859  Power_getDependencyCount                                                  
00008e1d  Power_getTransitionLatency                                                
00009865  Power_getTransitionState                                                  
00009315  Power_idleFunc                                                            
00002a31  Power_init                                                                
00008775  Power_registerNotify                                                      
00007ec1  Power_releaseConstraint                                                   
000036f9  Power_releaseDependency                                                   
00007ef1  Power_setConstraint                                                       
000037cd  Power_setDependency                                                       
000014f1  Power_sleep                                                               
00008d01  Power_unregisterNotify                                                    
10017158  RCon                                                                      
10018415  RFHAL_AddTxDataEntry                                                      
100184f9  RFHAL_AllocDataEntry                                                      
100184a9  RFHAL_AllocDataEntryQueue                                                 
10018315  RFHAL_AllocRatChan                                                        
100185e1  RFHAL_BuildDataEntryRingBuffer                                            
10018669  RFHAL_BuildLinkedBuffer                                                   
10018551  RFHAL_BuildRingBuffer                                                     
10018549  RFHAL_FreeDataEntry                                                       
100184c5  RFHAL_FreeDataEntryQueue                                                  
10018485  RFHAL_FreeNextTxDataEntry                                                 
1001833d  RFHAL_FreeRatChan                                                         
100184cd  RFHAL_GetNextDataEntry                                                    
100184d1  RFHAL_GetTempDataEntry                                                    
100183b9  RFHAL_InitDataQueue                                                       
100182ad  RFHAL_InitRfHal                                                           
10018369  RFHAL_MapRatChansToInt                                                    
100184d5  RFHAL_NextDataEntryDone                                                   
100183c5  RFHAL_QueueRFDataEntries                                                  
10018391  RFHAL_RegisterRatChanCallback                                             
0000950d  RF_Params_init                                                            
00001e91  RF_cancelCmd                                                              
00009949  RF_flushCmd                                                               
00009597  RF_getCmdOp                                                               
00006281  RF_getCurrentTime                                                         
00006bc5  RF_getInfo                                                                
000073b5  RF_getRssi                                                                
00003d45  RF_open                                                                   
00005319  RF_pendCmd                                                                
000024f9  RF_postCmd                                                                
000075d9  RF_runCmd                                                                 
00008f59  RF_runDirectCmd                                                           
00008f75  RF_runImmediateCmd                                                        
0000964d  RegisterAssertCback                                                       
000071e1  ResetISR                                                                  
10016b79  RoundKey_Sw                                                               
10015101  SAVEPOINT                                                                 
20004f68  SCAL                                                                      
100150e5  SCALARMUL                                                                 
10014ced  SCALARMUL_core                                                            
10015019  SCALARMUL_final                                                           
10014c05  SCALARMUL_init                                                            
10015a51  SETOPERAND                                                                
10015a91  SETWORD                                                                   
10018089  SHA256_final                                                              
10018129  SHA256_full                                                               
10017ffd  SHA256_init                                                               
10017ef1  SHA256_nextState                                                          
10018019  SHA256_process                                                            
10017e75  SHA256_round                                                              
10017f49  SHA256_saveBuffer                                                         
10017e39  SHA256_updateW                                                            
UNDEFED   SHT$$INIT_ARRAY$$Base                                                     
UNDEFED   SHT$$INIT_ARRAY$$Limit                                                    
10015821  SQUAREMULTIPLYWORD                                                        
10017895  SSP_CCM_Auth_Encrypt_Sw                                                   
10017365  SSP_CCM_Auth_Sw                                                           
1001767d  SSP_CCM_Decrypt_Sw                                                        
100174fd  SSP_CCM_Encrypt_Sw                                                        
100178f5  SSP_CCM_InvAuth_Decrypt_Sw                                                
10017839  SSP_CCM_InvAuth_Sw                                                        
10017771  SSP_CTR_Decrypt_Sw                                                        
100175ed  SSP_CTR_Encrypt_Sw                                                        
0000879d  SafeHapiVoid                                                              
10017164  Sbox                                                                      
10015215  SelectReg                                                                 
00005dd5  SensorTagConnectionControl_update                                         
00009925  SensorTag_charValueChangeCB                                               
00007615  SensorTag_createTask                                                      
0000935d  SensorTag_updateAdvertisingData                                           
10016c45  ShiftRows_Sw                                                              
20004f88  TMP1                                                                      
20004f8c  TMP2                                                                      
20004f90  TMP3                                                                      
20004f94  TMP4                                                                      
20004f98  TMP5                                                                      
20004f9c  TMP6                                                                      
0000a1b4  TRNGCC26XXHWAttrs                                                         
0000a184  TRNGCC26XX_config                                                         
00005211  TRNGCC26XX_getNumber                                                      
000087ed  TRNGCC26XX_init                                                           
000084c3  TRNGCC26XX_isParamValid                                                   
00008fad  TRNGCC26XX_open                                                           
00007039  Util_constructClock                                                       
0000974d  Util_constructQueue                                                       
0000906b  Util_dequeueMsg                                                           
000084ed  Util_enqueueMsg                                                           
0000965d  Util_isActive                                                             
000077e5  Util_restartClock                                                         
00009a17  Util_startClock                                                           
00009a1b  Util_stopClock                                                            
10015a85  ZERO                                                                      
00000000  __ASM__                                                                   
00000081  __ISA__                                                                   
00000093  __PLAT__                                                                  
20004348  __STACK_END                                                               
00000400  __STACK_SIZE                                                              
20004348  __STACK_TOP                                                               
000000ba  __TARG__                                                                  
0000aaa0  __TI_CINIT_Base                                                           
0000ab00  __TI_CINIT_Limit                                                          
0000aa48  __TI_Handler_Table_Base                                                   
0000aa54  __TI_Handler_Table_Limit                                                  
0000456d  __TI_auto_init                                                            
20002074  __TI_cleanup_ptr                                                          
0000975b  __TI_decompress_none                                                      
0000999d  __TI_decompress_rle24                                                     
20002078  __TI_dtors_ptr                                                            
0000a1e0  __TI_static_base__                                                        
00009889  __TI_zero_init                                                            
000000df  __TRDR__                                                                  
000024f7  __aeabi_idiv0                                                             
00003d43  __aeabi_ldiv0                                                             
00001719  __aeabi_ldivmod                                                           
000093d5  __aeabi_lmul                                                              
00005515  __aeabi_memclr                                                            
00005515  __aeabi_memclr4                                                           
00005515  __aeabi_memclr8                                                           
00004889  __aeabi_memcpy                                                            
00004889  __aeabi_memcpy4                                                           
00004889  __aeabi_memcpy8                                                           
00005517  __aeabi_memset                                                            
00005517  __aeabi_memset4                                                           
00005517  __aeabi_memset8                                                           
000073f5  __aeabi_uidiv                                                             
000073f5  __aeabi_uidivmod                                                          
00000dfd  __aeabi_uldivmod                                                          
ffffffff  __binit__                                                                 
ffffffff  __c_args__                                                                
0001ffa8  __ccfg                                                                    
10019ffe  __checksum_CommonROM                                                      
10014c00  __checksum_begin_CommonROM                                                
10019ffd  __checksum_end_CommonROM                                                  
0000e0ea  __checksum_value_CommonROM                                                
10018ced  __exit                                                                    
20003f48  __stack                                                                   
00009991  __xdc__init                                                               
20001e40  __xdc__init__addr                                                         
000093bd  _args_main                                                                
000071e1  _c_int00                                                                  
2000206c  _lock                                                                     
00009535  _nop                                                                      
0000953d  _register_lock                                                            
00009537  _register_unlock                                                          
20002070  _unlock                                                                   
0000726d  abort                                                                     
200011b6  adxlRegistered                                                            
2000146c  appAssertCback                                                            
0000a032  appearanceUUID                                                            
00005399  aquireI2CInterface                                                        
20004fdc  aux64                                                                     
ffffffff  binit                                                                     
0000966d  bme68x_delay_us                                                           
00005fd1  bme68x_get_data                                                           
00006035  bme68x_get_meas_dur                                                       
000089f9  bme68x_get_op_mode                                                        
00006c65  bme68x_get_regs                                                           
00006099  bme68x_i2c_read                                                           
00005295  bme68x_i2c_write                                                          
00007b6d  bme68x_init                                                               
00007f21  bme68x_interface_init                                                     
000027bd  bme68x_set_conf                                                           
00004239  bme68x_set_heatr_conf                                                     
00004ca9  bme68x_set_op_mode                                                        
0000460d  bme68x_set_regs                                                           
0000683d  bme68x_soft_reset                                                         
200006d6  bmeRegistered                                                             
0000a140  ccServiceCBs                                                              
00009f74  ccServiceServUUID                                                         
00009f84  ccServicechar1UUID                                                        
00009f94  ccServicechar2UUID                                                        
00009fa4  ccServicechar3UUID                                                        
0000a02e  charAggFormatUUID                                                         
0000a028  charExtPropsUUID                                                          
0000a02c  charFormatUUID                                                            
0000a01c  charUserDescUUID                                                          
0000a01a  characterUUID                                                             
0000a01e  clientCharCfgUUID                                                         
000083e9  config_bme                                                                
00008b7f  config_heatr                                                              
00006ec9  copy_in                                                                   
0000a0e4  devInfo11073CertUUID                                                      
0000a154  devInfoCBs                                                                
0000a0dc  devInfoFirmwareRevUUID                                                    
0000a0de  devInfoHardwareRevUUID                                                    
0000a0e2  devInfoMfrNameUUID                                                        
0000a0d8  devInfoModelNumberUUID                                                    
0000a0e6  devInfoPnpIdUUID                                                          
0000a0da  devInfoSerialNumberUUID                                                   
0000a0d4  devInfoServUUID                                                           
0000a0e0  devInfoSoftwareRevUUID                                                    
0000a0d6  devInfoSystemIdUUID                                                       
0000a030  deviceNameUUID                                                            
20000b38  dispHandle                                                                
000094a5  driverTable_fnSpinlock                                                    
20002cd5  driverlib_release_0_46593                                                 
10017dbd  eccRom_genKeys                                                            
10017ded  eccRom_genSharedSecret                                                    
20004fa0  eccRom_param_Gx                                                           
20004fa4  eccRom_param_Gy                                                           
20004f50  eccRom_param_a                                                            
20004fa8  eccRom_param_b                                                            
20004f48  eccRom_param_p                                                            
20004f4c  eccRom_param_r                                                            
20004f40  eccRom_windowSize                                                         
20004f44  eccRom_workzone                                                           
00007275  exit                                                                      
0000a03e  extReportRefUUID                                                          
20004fcc  fwInfoCmd                                                                 
20002cc8  gBME                                                                      
20000208  gapProfileState                                                           
20000fac  gapRoleTask                                                               
20000ffc  gapRoleTaskStack                                                          
0000938d  gapRole_clockHandler                                                      
0000a020  gapServiceUUID                                                            
0000a022  gattServiceUUID                                                           
00007111  get_data                                                                  
20003f48  heapEnd                                                                   
20002cd6  heapStart                                                                 
00009fe8  i2cCC26xxHWAttrs                                                          
20002910  i2cCC26xxObjects                                                          
20002ccc  i2c_devices                                                               
20004f58  inPointX                                                                  
20004f5c  inPointY                                                                  
20004f54  inScalar                                                                  
0000a026  includeUUID                                                               
00007ba1  init_bme                                                                  
20002058  lastAppOpcodeSent                                                         
20000e98  linkDBNumConns                                                            
00007855  linkDB_NumConns                                                           
10016551  mADD                                                                      
10015bd5  mINVK                                                                     
10015f81  mMULT                                                                     
10016749  mOUT                                                                      
10015a9d  mSET                                                                      
1001664d  mSUB                                                                      
000057d9  main                                                                      
20002084  main_func_sp                                                              
10018949  mbCmdAckIsr                                                               
1001895d  mbCpe0Isr                                                                 
10018985  mbCpe1Isr                                                                 
100189e5  mbHwIsr                                                                   
00004889  memcpy                                                                    
0000551d  memset                                                                    
00008fe5  openTRNG                                                                  
00007bd5  osal_snv_read                                                             
00007c09  osal_snv_write                                                            
20004f60  outPointX                                                                 
20004f64  outPointY                                                                 
20004ffc  pSspAesEncrypt_Sw                                                         
0000a038  periConnParamUUID                                                         
0000a034  periPrivacyFlagUUID                                                       
2000205c  pfnBMAlloc                                                                
20002060  pfnBMFree                                                                 
0000a018  primaryServiceUUID                                                        
20001f84  rFSwitchPowerNotifyObj                                                    
20001f78  radCtrlCfg                                                                
20001f68  radCtrlHandle                                                             
20001f6c  radCtrlState                                                              
20004fac  ratChanInfo                                                               
0000a036  reconnectAddrUUID                                                         
000098a1  releaseI2CInterface                                                       
0000a040  reportRefUUID                                                             
00009e14  resourceDB                                                                
00009e60  rfDriverTable                                                             
20001e44  rfRegTbl                                                                  
20000bc4  sbpTask                                                                   
20000c14  sbpTaskStack                                                              
0000a024  secondaryServiceUUID                                                      
20000209  selfEntityMain                                                            
2000020c  sem                                                                       
0000a02a  servCharCfgUUID                                                           
0000a03a  serviceChangedUUID                                                        
10016d29  sspAesDecrypt_Sw                                                          
10016af5  sspAesEncryptBasic_Sw                                                     
10016a99  sspAesEncryptKeyExp_Sw                                                    
10016979  sspAesEncrypt_Sw                                                          
10016985  sspKeyExpansion_Sw                                                        
10016975  ssp_KeyInit_Sw                                                            
00009549  strlen                                                                    
200001a4  ti_sysbios_BIOS_Module__state__V                                          
1001bc25  ti_sysbios_BIOS_RtsGateProxy_Handle__label__S                             
UNDEFED   ti_sysbios_BIOS_RtsGateProxy_Handle__label__S__mangled__                  
1001bab5  ti_sysbios_BIOS_RtsGateProxy_Object__delete__S                            
UNDEFED   ti_sysbios_BIOS_RtsGateProxy_Object__delete__S__mangled__                 
1001c175  ti_sysbios_BIOS_RtsGateProxy_Params__init__S                              
UNDEFED   ti_sysbios_BIOS_RtsGateProxy_Params__init__S__mangled__                   
1001c245  ti_sysbios_BIOS_RtsGateProxy_enter__E                                     
1001c249  ti_sysbios_BIOS_RtsGateProxy_leave__E                                     
1001c271  ti_sysbios_BIOS_RtsGateProxy_query__E                                     
UNDEFED   ti_sysbios_BIOS_RtsGateProxy_query__E__mangled__                          
00007f51  ti_sysbios_BIOS_atExitFunc__I                                             
000094bb  ti_sysbios_BIOS_exitFunc__I                                               
1001c031  ti_sysbios_BIOS_exit__E                                                   
1001bff5  ti_sysbios_BIOS_getCpuFreq__E                                             
000098ad  ti_sysbios_BIOS_getThreadType__E                                          
000049bf  ti_sysbios_BIOS_linkedWithIncorrectBootLibrary__E                         
00005607  ti_sysbios_BIOS_nullFunc__I                                               
00008aad  ti_sysbios_BIOS_registerRTSLock__I                                        
00008ad1  ti_sysbios_BIOS_removeRTSLock__I                                          
00008d81  ti_sysbios_BIOS_rtsLock__I                                                
00009405  ti_sysbios_BIOS_rtsUnlock__I                                              
1001c041  ti_sysbios_BIOS_setThreadType__E                                          
00007f81  ti_sysbios_BIOS_startFunc__I                                              
1001c051  ti_sysbios_BIOS_start__E                                                  
00004385  ti_sysbios_family_arm_cc26xx_Boot_trimDevice                              
00001406  ti_sysbios_family_arm_cc26xx_Timer_Module__id__C                          
20001d74  ti_sysbios_family_arm_cc26xx_Timer_Module__root__V                        
1001bb45  ti_sysbios_family_arm_cc26xx_Timer_Module__startupDone__S                 
200001e4  ti_sysbios_family_arm_cc26xx_Timer_Module__state__V                       
1001ba6d  ti_sysbios_family_arm_cc26xx_Timer_Module_startup__E                      
20001ee8  ti_sysbios_family_arm_cc26xx_Timer_Object__table__V                       
00009001  ti_sysbios_family_arm_cc26xx_Timer_dynamicStub__E                         
00009a27  ti_sysbios_family_arm_cc26xx_Timer_getCount64__E                          
0000788d  ti_sysbios_family_arm_cc26xx_Timer_getCurrentTick__E                      
1001c24d  ti_sysbios_family_arm_cc26xx_Timer_getExpiredTicks__E                     
00008865  ti_sysbios_family_arm_cc26xx_Timer_getMaxTicks__E                         
1001c251  ti_sysbios_family_arm_cc26xx_Timer_getPeriod__E                           
00007fb1  ti_sysbios_family_arm_cc26xx_Timer_initDevice__I                          
1001a465  ti_sysbios_family_arm_cc26xx_Timer_periodicStub__E                        
1001b765  ti_sysbios_family_arm_cc26xx_Timer_postInit__I                            
00007d9d  ti_sysbios_family_arm_cc26xx_Timer_setNextTick__E                         
1001c255  ti_sysbios_family_arm_cc26xx_Timer_setPeriod__E                           
00007fe1  ti_sysbios_family_arm_cc26xx_Timer_setThreshold__I                        
000060fd  ti_sysbios_family_arm_cc26xx_Timer_start__E                               
00001384  ti_sysbios_family_arm_cc26xx_Timer_startupNeeded__C                       
1001b791  ti_sysbios_family_arm_cc26xx_Timer_startup__E                             
200001ec  ti_sysbios_family_arm_cc26xx_TimestampProvider_Module__state__V           
1001bb65  ti_sysbios_family_arm_cc26xx_TimestampProvider_Module_startup__E          
000097a1  ti_sysbios_family_arm_cc26xx_TimestampProvider_get32__E                   
1001b9cd  ti_sysbios_family_arm_cc26xx_TimestampProvider_get64__E                   
1001c12b  ti_sysbios_family_arm_cc26xx_TimestampProvider_getFreq__E                 
00001408  ti_sysbios_family_arm_cc26xx_TimestampProvider_useClockTimer__C           
00001388  ti_sysbios_family_arm_m3_Hwi_E_alreadyDefined__C                          
0000138c  ti_sysbios_family_arm_m3_Hwi_E_hwiLimitExceeded__C                        
1001aed1  ti_sysbios_family_arm_m3_Hwi_Instance_finalize__E                         
1001a3c5  ti_sysbios_family_arm_m3_Hwi_Instance_init__E                             
20001d9c  ti_sysbios_family_arm_m3_Hwi_Module_State_0_excActive__A                  
20001da0  ti_sysbios_family_arm_m3_Hwi_Module_State_0_excContext__A                 
20001da4  ti_sysbios_family_arm_m3_Hwi_Module_State_0_excStack__A                   
0000140a  ti_sysbios_family_arm_m3_Hwi_Module__id__C                                
20001d7c  ti_sysbios_family_arm_m3_Hwi_Module__root__V                              
1001bb85  ti_sysbios_family_arm_m3_Hwi_Module__startupDone__S                       
20000144  ti_sysbios_family_arm_m3_Hwi_Module__state__V                             
1001b1c1  ti_sysbios_family_arm_m3_Hwi_Module_startup__E                            
00001390  ti_sysbios_family_arm_m3_Hwi_NUM_INTERRUPTS__C                            
000011d0  ti_sysbios_family_arm_m3_Hwi_Object__DESC__C                              
00001070  ti_sysbios_family_arm_m3_Hwi_Object__PARAMS__C                            
00001394  ti_sysbios_family_arm_m3_Hwi_Object__count__C                             
1001aab1  ti_sysbios_family_arm_m3_Hwi_Object__create__S                            
1001bba5  ti_sysbios_family_arm_m3_Hwi_Object__delete__S                            
1001be65  ti_sysbios_family_arm_m3_Hwi_Object__destruct__S                          
1001b7bd  ti_sysbios_family_arm_m3_Hwi_Object__get__S                               
00001398  ti_sysbios_family_arm_m3_Hwi_Object__table__C                             
20001d84  ti_sysbios_family_arm_m3_Hwi_Object__table__V                             
1001c139  ti_sysbios_family_arm_m3_Hwi_Params__init__S                              
0000139c  ti_sysbios_family_arm_m3_Hwi_ccr__C                                       
1001af29  ti_sysbios_family_arm_m3_Hwi_construct                                    
1001ab15  ti_sysbios_family_arm_m3_Hwi_create                                       
1001c259  ti_sysbios_family_arm_m3_Hwi_delete                                       
1001c25d  ti_sysbios_family_arm_m3_Hwi_destruct                                     
1001c145  ti_sysbios_family_arm_m3_Hwi_disableFxn__E                                
1001b251  ti_sysbios_family_arm_m3_Hwi_disableInterrupt__E                          
1001aa49  ti_sysbios_family_arm_m3_Hwi_dispatchC__I                                 
20002be0  ti_sysbios_family_arm_m3_Hwi_dispatchTable                                
1001c899  ti_sysbios_family_arm_m3_Hwi_dispatch__I                                  
1001c1f7  ti_sysbios_family_arm_m3_Hwi_doSwiRestore__I                              
1001c20f  ti_sysbios_family_arm_m3_Hwi_doTaskRestore__I                             
1001c151  ti_sysbios_family_arm_m3_Hwi_enableFxn__E                                 
1001b295  ti_sysbios_family_arm_m3_Hwi_enableInterrupt__E                           
1001c9fd  ti_sysbios_family_arm_m3_Hwi_excHandlerAsm__I                             
000013a0  ti_sysbios_family_arm_m3_Hwi_excHandlerFunc__C                            
1001bbc5  ti_sysbios_family_arm_m3_Hwi_excHandler__I                                
1001b461  ti_sysbios_family_arm_m3_Hwi_getStackInfo__E                              
1001a695  ti_sysbios_family_arm_m3_Hwi_initNVIC__E                                  
1001c9b5  ti_sysbios_family_arm_m3_Hwi_initStacks__E                                
000013a4  ti_sysbios_family_arm_m3_Hwi_nullIsrFunc__C                               
000013a8  ti_sysbios_family_arm_m3_Hwi_numSparseInterrupts__C                       
e000e000  ti_sysbios_family_arm_m3_Hwi_nvic                                         
1001ca3b  ti_sysbios_family_arm_m3_Hwi_pendSV__I                                    
1001c061  ti_sysbios_family_arm_m3_Hwi_plug__E                                      
1001a315  ti_sysbios_family_arm_m3_Hwi_postInit__I                                  
0000968d  ti_sysbios_family_arm_m3_Hwi_post__E                                      
000013ac  ti_sysbios_family_arm_m3_Hwi_priGroup__C                                  
20000000  ti_sysbios_family_arm_m3_Hwi_ramVectors                                   
00000000  ti_sysbios_family_arm_m3_Hwi_resetVectors                                 
1001c215  ti_sysbios_family_arm_m3_Hwi_restoreFxn__E                                
1001ca53  ti_sysbios_family_arm_m3_Hwi_return                                       
000099fd  ti_sysbios_family_arm_m3_Hwi_setFunc__E                                   
1001be81  ti_sysbios_family_arm_m3_Hwi_setPriority__E                               
1001c1ff  ti_sysbios_family_arm_m3_Hwi_startup__E                                   
1001c009  ti_sysbios_family_arm_m3_Hwi_switchFromBootStack__E                       
1001c261  ti_sysbios_family_arm_m3_TaskSupport_Module__startupDone__S               
1001c969  ti_sysbios_family_arm_m3_TaskSupport_buildTaskStack                       
1001c15d  ti_sysbios_family_arm_m3_TaskSupport_getStackAlignment__E                 
1001ca55  ti_sysbios_family_arm_m3_TaskSupport_glue                                 
000013b0  ti_sysbios_family_arm_m3_TaskSupport_stackAlignment__C                    
1001b499  ti_sysbios_family_arm_m3_TaskSupport_start__E                             
1001ca65  ti_sysbios_family_arm_m3_TaskSupport_swap__E                              
1001ca1d  ti_sysbios_family_xxx_Hwi_switchAndRunFunc                                
1001bbe5  ti_sysbios_gates_GateHwi_Handle__label__S                                 
1001b45f  ti_sysbios_gates_GateHwi_Instance_init__E                                 
0000111c  ti_sysbios_gates_GateHwi_Module__FXNS__C                                  
0000140c  ti_sysbios_gates_GateHwi_Module__id__C                                    
20001da8  ti_sysbios_gates_GateHwi_Module__root__V                                  
000011f0  ti_sysbios_gates_GateHwi_Object__DESC__C                                  
00001330  ti_sysbios_gates_GateHwi_Object__PARAMS__C                                
1001ba91  ti_sysbios_gates_GateHwi_Object__create__S                                
1001bc05  ti_sysbios_gates_GateHwi_Object__delete__S                                
20001db0  ti_sysbios_gates_GateHwi_Object__table__V                                 
1001c169  ti_sysbios_gates_GateHwi_enter__E                                         
1001c21b  ti_sysbios_gates_GateHwi_leave__E                                         
1001c265  ti_sysbios_gates_GateHwi_query__E                                         
1001bc25  ti_sysbios_gates_GateMutex_Handle__label__S                               
000014d0  ti_sysbios_gates_GateMutex_Instance_State_sem__O                          
1001c071  ti_sysbios_gates_GateMutex_Instance_finalize__E                           
1001be9d  ti_sysbios_gates_GateMutex_Instance_init__E                               
00001140  ti_sysbios_gates_GateMutex_Module__FXNS__C                                
0000140e  ti_sysbios_gates_GateMutex_Module__id__C                                  
20001db4  ti_sysbios_gates_GateMutex_Module__root__V                                
00001210  ti_sysbios_gates_GateMutex_Object__DESC__C                                
00001348  ti_sysbios_gates_GateMutex_Object__PARAMS__C                              
1001b645  ti_sysbios_gates_GateMutex_Object__create__S                              
1001bab5  ti_sysbios_gates_GateMutex_Object__delete__S                              
1001bc45  ti_sysbios_gates_GateMutex_Object__destruct__S                            
20001f30  ti_sysbios_gates_GateMutex_Object__table__V                               
1001c175  ti_sysbios_gates_GateMutex_Params__init__S                                
1001b7e9  ti_sysbios_gates_GateMutex_construct                                      
1001b675  ti_sysbios_gates_GateMutex_create                                         
1001c269  ti_sysbios_gates_GateMutex_delete                                         
1001c26d  ti_sysbios_gates_GateMutex_destruct                                       
1001b6a5  ti_sysbios_gates_GateMutex_enter__E                                       
1001bf99  ti_sysbios_gates_GateMutex_leave__E                                       
1001c271  ti_sysbios_gates_GateMutex_query__E                                       
1001c275  ti_sysbios_hal_Hwi_HwiProxy_Module__startupDone__S                        
UNDEFED   ti_sysbios_hal_Hwi_HwiProxy_Module__startupDone__S__mangled__             
1001c081  ti_sysbios_hal_Hwi_HwiProxy_Object__create__S                             
1001bba5  ti_sysbios_hal_Hwi_HwiProxy_Object__delete__S                             
UNDEFED   ti_sysbios_hal_Hwi_HwiProxy_Object__delete__S__mangled__                  
1001c139  ti_sysbios_hal_Hwi_HwiProxy_Params__init__S                               
UNDEFED   ti_sysbios_hal_Hwi_HwiProxy_Params__init__S__mangled__                    
1001be45  ti_sysbios_hal_Hwi_HwiProxy_create                                        
1001c279  ti_sysbios_hal_Hwi_HwiProxy_delete                                        
1001c27d  ti_sysbios_hal_Hwi_HwiProxy_disableInterrupt__E                           
UNDEFED   ti_sysbios_hal_Hwi_HwiProxy_disableInterrupt__E__mangled__                
1001c281  ti_sysbios_hal_Hwi_HwiProxy_enableInterrupt__E                            
UNDEFED   ti_sysbios_hal_Hwi_HwiProxy_enableInterrupt__E__mangled__                 
1001c285  ti_sysbios_hal_Hwi_HwiProxy_getStackInfo__E                               
UNDEFED   ti_sysbios_hal_Hwi_HwiProxy_getStackInfo__E__mangled__                    
0000968d  ti_sysbios_hal_Hwi_HwiProxy_post__E                                       
1001c289  ti_sysbios_hal_Hwi_HwiProxy_startup__E                                    
UNDEFED   ti_sysbios_hal_Hwi_HwiProxy_startup__E__mangled__                         
1001c28d  ti_sysbios_hal_Hwi_HwiProxy_switchFromBootStack__E                        
UNDEFED   ti_sysbios_hal_Hwi_HwiProxy_switchFromBootStack__E__mangled__             
1001c1ed  ti_sysbios_hal_Hwi_Instance_finalize__E                                   
1001b9f5  ti_sysbios_hal_Hwi_Instance_init__E                                       
20001dbc  ti_sysbios_hal_Hwi_Module__root__V                                        
1001c01d  ti_sysbios_hal_Hwi_Module_startup__E                                      
00001230  ti_sysbios_hal_Hwi_Object__DESC__C                                        
000010a0  ti_sysbios_hal_Hwi_Object__PARAMS__C                                      
1001bc65  ti_sysbios_hal_Hwi_Object__delete__S                                      
000098b9  ti_sysbios_hal_Hwi_Params__init__S                                        
1001ab79  ti_sysbios_hal_Hwi_create                                                 
1001c291  ti_sysbios_hal_Hwi_delete                                                 
1001c27d  ti_sysbios_hal_Hwi_disableInterrupt__E                                    
UNDEFED   ti_sysbios_hal_Hwi_disableInterrupt__E                                    
1001c281  ti_sysbios_hal_Hwi_enableInterrupt__E                                     
UNDEFED   ti_sysbios_hal_Hwi_enableInterrupt__E                                     
1001c285  ti_sysbios_hal_Hwi_getStackInfo__E                                        
UNDEFED   ti_sysbios_hal_Hwi_getStackInfo__E                                        
1001b815  ti_sysbios_hal_Hwi_initStack                                              
0000968d  ti_sysbios_hal_Hwi_post__E                                                
1001c289  ti_sysbios_hal_Hwi_startup__E                                             
UNDEFED   ti_sysbios_hal_Hwi_startup__E                                             
1001c295  ti_sysbios_hal_Hwi_switchFromBootStack__E                                 
UNDEFED   ti_sysbios_hal_Hwi_switchFromBootStack__E                                 
000013b4  ti_sysbios_heaps_HeapMem_E_memory__C                                      
1001bc85  ti_sysbios_heaps_HeapMem_Handle__label__S                                 
20002090  ti_sysbios_heaps_HeapMem_Instance_State_0_buf__A                          
1001b4d1  ti_sysbios_heaps_HeapMem_Instance_init__E                                 
1001bc25  ti_sysbios_heaps_HeapMem_Module_GateProxy_Handle__label__S                
UNDEFED   ti_sysbios_heaps_HeapMem_Module_GateProxy_Handle__label__S__mangled__     
1001bab5  ti_sysbios_heaps_HeapMem_Module_GateProxy_Object__delete__S               
UNDEFED   ti_sysbios_heaps_HeapMem_Module_GateProxy_Object__delete__S__mangled__    
1001c175  ti_sysbios_heaps_HeapMem_Module_GateProxy_Params__init__S                 
UNDEFED   ti_sysbios_heaps_HeapMem_Module_GateProxy_Params__init__S__mangled__      
1001c299  ti_sysbios_heaps_HeapMem_Module_GateProxy_enter__E                        
1001c29d  ti_sysbios_heaps_HeapMem_Module_GateProxy_leave__E                        
1001c271  ti_sysbios_heaps_HeapMem_Module_GateProxy_query__E                        
UNDEFED   ti_sysbios_heaps_HeapMem_Module_GateProxy_query__E__mangled__             
000010cc  ti_sysbios_heaps_HeapMem_Module__FXNS__C                                  
000013b8  ti_sysbios_heaps_HeapMem_Module__gateObj__C                               
00001410  ti_sysbios_heaps_HeapMem_Module__id__C                                    
20001dc4  ti_sysbios_heaps_HeapMem_Module__root__V                                  
00001250  ti_sysbios_heaps_HeapMem_Object__DESC__C                                  
00001164  ti_sysbios_heaps_HeapMem_Object__PARAMS__C                                
000013bc  ti_sysbios_heaps_HeapMem_Object__count__C                                 
1001b841  ti_sysbios_heaps_HeapMem_Object__create__S                                
1001bca5  ti_sysbios_heaps_HeapMem_Object__delete__S                                
1001b86d  ti_sysbios_heaps_HeapMem_Object__get__S                                   
000013c0  ti_sysbios_heaps_HeapMem_Object__table__C                                 
20001dcc  ti_sysbios_heaps_HeapMem_Object__table__V                                 
1001a195  ti_sysbios_heaps_HeapMem_alloc__E                                         
1001a791  ti_sysbios_heaps_HeapMem_free__E                                          
1001b209  ti_sysbios_heaps_HeapMem_getStats__E                                      
1001b541  ti_sysbios_heaps_HeapMem_init__I                                          
1001c2a1  ti_sysbios_heaps_HeapMem_isBlocking__E                                    
000013c4  ti_sysbios_heaps_HeapMem_reqAlign__C                                      
1001c101  ti_sysbios_heaps_HeapMem_restore__E                                       
1001bfc9  ti_sysbios_knl_Clock_Instance_finalize__E                                 
1001b509  ti_sysbios_knl_Clock_Instance_init__E                                     
000014d4  ti_sysbios_knl_Clock_Module_State_clockQ__O                               
20001de4  ti_sysbios_knl_Clock_Module__root__V                                      
20000178  ti_sysbios_knl_Clock_Module__state__V                                     
1001bcc5  ti_sysbios_knl_Clock_Module_startup__E                                    
00001270  ti_sysbios_knl_Clock_Object__DESC__C                                      
00001188  ti_sysbios_knl_Clock_Object__PARAMS__C                                    
1001bad9  ti_sysbios_knl_Clock_Object__delete__S                                    
1001bce5  ti_sysbios_knl_Clock_Object__destruct__S                                  
20001dec  ti_sysbios_knl_Clock_Object__table__V                                     
1001c181  ti_sysbios_knl_Clock_Params__init__S                                      
1001c2a5  ti_sysbios_knl_Clock_TimerProxy_Module__startupDone__S                    
UNDEFED   ti_sysbios_knl_Clock_TimerProxy_Module__startupDone__S__mangled__         
1001c091  ti_sysbios_knl_Clock_TimerProxy_getCurrentTick__E                         
1001c2a9  ti_sysbios_knl_Clock_TimerProxy_getExpiredTicks__E                        
1001c0a1  ti_sysbios_knl_Clock_TimerProxy_getMaxTicks__E                            
1001c2ad  ti_sysbios_knl_Clock_TimerProxy_getPeriod__E                              
1001c0b1  ti_sysbios_knl_Clock_TimerProxy_setNextTick__E                            
1001b791  ti_sysbios_knl_Clock_TimerProxy_startup__E                                
UNDEFED   ti_sysbios_knl_Clock_TimerProxy_startup__E__mangled__                     
1001ba1d  ti_sysbios_knl_Clock_addI__E                                              
1001b575  ti_sysbios_knl_Clock_construct                                            
1001b3e9  ti_sysbios_knl_Clock_create                                               
1001c2b1  ti_sysbios_knl_Clock_delete                                               
1001c2b5  ti_sysbios_knl_Clock_destruct                                             
00009571  ti_sysbios_knl_Clock_doTick__I                                            
00008441  ti_sysbios_knl_Clock_getTicksUntilInterrupt__E                            
1001b6d5  ti_sysbios_knl_Clock_getTicks__E                                          
1001c18d  ti_sysbios_knl_Clock_getTimerHandle__E                                    
00009a2b  ti_sysbios_knl_Clock_isActive__E                                          
1001be63  ti_sysbios_knl_Clock_logTick__E                                           
1001c2b9  ti_sysbios_knl_Clock_removeI__E                                           
1001beb9  ti_sysbios_knl_Clock_scheduleNextTick__E                                  
000013c8  ti_sysbios_knl_Clock_serviceMargin__C                                     
1001c2bd  ti_sysbios_knl_Clock_setTimeout__E                                        
1001a715  ti_sysbios_knl_Clock_startI__E                                            
1001bfdf  ti_sysbios_knl_Clock_start__E                                             
00008da1  ti_sysbios_knl_Clock_stop__E                                              
00001414  ti_sysbios_knl_Clock_tickMode__C                                          
0000a1bc  ti_sysbios_knl_Clock_tickPeriod__C                                        
0000a1c0  ti_sysbios_knl_Clock_triggerClock__C                                      
00005a0f  ti_sysbios_knl_Clock_triggerFunc__I                                       
1001a809  ti_sysbios_knl_Clock_walkQueueDynamic__E                                  
00004a59  ti_sysbios_knl_Clock_workFuncDynamic__E                                   
1001a881  ti_sysbios_knl_Clock_workFunc__E                                          
20001e0c  ti_sysbios_knl_Event_Module__root__V                                      
0000a1c4  ti_sysbios_knl_Idle_funcList__A                                           
00001378  ti_sysbios_knl_Idle_funcList__C                                           
1001c207  ti_sysbios_knl_Idle_loop__E                                               
1001bd05  ti_sysbios_knl_Idle_run__E                                                
000014d8  ti_sysbios_knl_Mailbox_Instance_State_dataQue__O                          
000014dc  ti_sysbios_knl_Mailbox_Instance_State_dataSem__O                          
000014e0  ti_sysbios_knl_Mailbox_Instance_State_freeQue__O                          
000014e4  ti_sysbios_knl_Mailbox_Instance_State_freeSem__O                          
1001a8f9  ti_sysbios_knl_Mailbox_Instance_finalize__E                               
1001a0cd  ti_sysbios_knl_Mailbox_Instance_init__E                                   
20001e14  ti_sysbios_knl_Mailbox_Module__root__V                                    
1001b2d9  ti_sysbios_knl_Mailbox_Module_startup__E                                  
00001290  ti_sysbios_knl_Mailbox_Object__DESC__C                                    
0000103c  ti_sysbios_knl_Mailbox_Object__PARAMS__C                                  
000013cc  ti_sysbios_knl_Mailbox_Object__count__C                                   
1001bd25  ti_sysbios_knl_Mailbox_Object__delete__S                                  
1001bed5  ti_sysbios_knl_Mailbox_Object__destruct__S                                
1001b899  ti_sysbios_knl_Mailbox_Object__get__S                                     
000013d0  ti_sysbios_knl_Mailbox_Object__table__C                                   
1001c199  ti_sysbios_knl_Mailbox_Params__init__S                                    
1001af81  ti_sysbios_knl_Mailbox_construct                                          
1001abdd  ti_sysbios_knl_Mailbox_create                                             
1001c2c1  ti_sysbios_knl_Mailbox_delete                                             
1001c2c5  ti_sysbios_knl_Mailbox_destruct                                           
000013d4  ti_sysbios_knl_Mailbox_maxTypeAlign__C                                    
1001a969  ti_sysbios_knl_Mailbox_pend__E                                            
1001b8c5  ti_sysbios_knl_Mailbox_postInit__I                                        
1001a58d  ti_sysbios_knl_Mailbox_post__E                                            
1001c227  ti_sysbios_knl_Queue_Instance_init__E                                     
20001e1c  ti_sysbios_knl_Queue_Module__root__V                                      
000012b0  ti_sysbios_knl_Queue_Object__DESC__C                                      
00001360  ti_sysbios_knl_Queue_Object__PARAMS__C                                    
000013d8  ti_sysbios_knl_Queue_Object__count__C                                     
1001bd45  ti_sysbios_knl_Queue_Object__delete__S                                    
1001bef1  ti_sysbios_knl_Queue_Object__destruct__S                                  
1001bd65  ti_sysbios_knl_Queue_Object__get__S                                       
000013dc  ti_sysbios_knl_Queue_Object__table__C                                     
1001b8f1  ti_sysbios_knl_Queue_construct                                            
1001b91d  ti_sysbios_knl_Queue_create                                               
1001c2c9  ti_sysbios_knl_Queue_delete                                               
1001c1a5  ti_sysbios_knl_Queue_dequeue__E                                           
1001c2cd  ti_sysbios_knl_Queue_destruct                                             
1001c22d  ti_sysbios_knl_Queue_elemClear__E                                         
1001c10f  ti_sysbios_knl_Queue_empty__E                                             
1001c1b1  ti_sysbios_knl_Queue_enqueue__E                                           
1001bf0d  ti_sysbios_knl_Queue_get__E                                               
1001c2d1  ti_sysbios_knl_Queue_head__E                                              
00009a2f  ti_sysbios_knl_Queue_insert__E                                            
1001c2d5  ti_sysbios_knl_Queue_next__E                                              
1001bf29  ti_sysbios_knl_Queue_put__E                                               
1001c11d  ti_sysbios_knl_Queue_remove__E                                            
000014e8  ti_sysbios_knl_Semaphore_Instance_State_pendQ__O                          
1001c0c1  ti_sysbios_knl_Semaphore_Instance_finalize__E                             
1001bafd  ti_sysbios_knl_Semaphore_Instance_init__E                                 
20001e24  ti_sysbios_knl_Semaphore_Module__root__V                                  
000012d0  ti_sysbios_knl_Semaphore_Object__DESC__C                                  
000011ac  ti_sysbios_knl_Semaphore_Object__PARAMS__C                                
1001bb21  ti_sysbios_knl_Semaphore_Object__delete__S                                
1001bd85  ti_sysbios_knl_Semaphore_Object__destruct__S                              
1001c1bd  ti_sysbios_knl_Semaphore_Params__init__S                                  
1001b705  ti_sysbios_knl_Semaphore_construct                                        
1001b5a9  ti_sysbios_knl_Semaphore_create                                           
1001c2d9  ti_sysbios_knl_Semaphore_delete                                           
1001c2dd  ti_sysbios_knl_Semaphore_destruct                                         
1001b949  ti_sysbios_knl_Semaphore_pendTimeout__I                                   
1001a001  ti_sysbios_knl_Semaphore_pend__E                                          
1001ac41  ti_sysbios_knl_Semaphore_post__E                                          
1001bf97  ti_sysbios_knl_Swi_Instance_finalize__E                                   
1001aca5  ti_sysbios_knl_Swi_Instance_init__E                                       
20001f98  ti_sysbios_knl_Swi_Module_State_0_readyQ__A                               
20001e2c  ti_sysbios_knl_Swi_Module__root__V                                        
200001c8  ti_sysbios_knl_Swi_Module__state__V                                       
1001c233  ti_sysbios_knl_Swi_Module_startup__E                                      
000012f0  ti_sysbios_knl_Swi_Object__DESC__C                                        
000010f4  ti_sysbios_knl_Swi_Object__PARAMS__C                                      
000013e0  ti_sysbios_knl_Swi_Object__count__C                                       
1001bda5  ti_sysbios_knl_Swi_Object__delete__S                                      
1001bf45  ti_sysbios_knl_Swi_Object__destruct__S                                    
1001b975  ti_sysbios_knl_Swi_Object__get__S                                         
000013e4  ti_sysbios_knl_Swi_Object__table__C                                       
20001fc8  ti_sysbios_knl_Swi_Object__table__V                                       
1001c1c9  ti_sysbios_knl_Swi_Params__init__S                                        
1001b085  ti_sysbios_knl_Swi_construct                                              
1001ad05  ti_sysbios_knl_Swi_create                                                 
1001c2e1  ti_sysbios_knl_Swi_delete                                                 
1001c2e5  ti_sysbios_knl_Swi_destruct                                               
1001c0d1  ti_sysbios_knl_Swi_disable__E                                             
1001c0e1  ti_sysbios_knl_Swi_enabled__E                                             
000098c5  ti_sysbios_knl_Swi_getTrigger__E                                          
000013e8  ti_sysbios_knl_Swi_numPriorities__C                                       
0000941d  ti_sysbios_knl_Swi_or__E                                                  
1001c2e9  ti_sysbios_knl_Swi_postInit__I                                            
1001b31d  ti_sysbios_knl_Swi_post__E                                                
1001ad61  ti_sysbios_knl_Swi_restoreHwi__E                                          
1001b5dd  ti_sysbios_knl_Swi_restore__E                                             
1001b0d5  ti_sysbios_knl_Swi_runLoop__I                                             
1001afd9  ti_sysbios_knl_Swi_run__I                                                 
1001b031  ti_sysbios_knl_Swi_schedule__I                                            
1001c239  ti_sysbios_knl_Swi_startup__E                                             
20002710  ti_sysbios_knl_Task_Instance_State_0_stack__A                             
1001a4f9  ti_sysbios_knl_Task_Instance_finalize__E                                  
1001a259  ti_sysbios_knl_Task_Instance_init__E                                      
20001e3c  ti_sysbios_knl_Task_Module_State_0_idleTask__A                            
20001ff8  ti_sysbios_knl_Task_Module_State_0_readyQ__A                              
000014ec  ti_sysbios_knl_Task_Module_State_inactiveQ__O                             
20001e34  ti_sysbios_knl_Task_Module__root__V                                       
20000100  ti_sysbios_knl_Task_Module__state__V                                      
1001adbd  ti_sysbios_knl_Task_Module_startup__E                                     
00001310  ti_sysbios_knl_Task_Object__DESC__C                                       
00001000  ti_sysbios_knl_Task_Object__PARAMS__C                                     
000013ec  ti_sysbios_knl_Task_Object__count__C                                      
1001bdc5  ti_sysbios_knl_Task_Object__delete__S                                     
1001bf61  ti_sysbios_knl_Task_Object__destruct__S                                   
1001bde5  ti_sysbios_knl_Task_Object__get__S                                        
000013f0  ti_sysbios_knl_Task_Object__table__C                                      
20001e98  ti_sysbios_knl_Task_Object__table__V                                      
1001c1d5  ti_sysbios_knl_Task_Params__init__S                                       
1001c2ed  ti_sysbios_knl_Task_SupportProxy_Module__startupDone__S                   
UNDEFED   ti_sysbios_knl_Task_SupportProxy_Module__startupDone__S__mangled__        
1001c2f1  ti_sysbios_knl_Task_SupportProxy_getStackAlignment__E                     
UNDEFED   ti_sysbios_knl_Task_SupportProxy_getStackAlignment__E__mangled__          
1001c2f5  ti_sysbios_knl_Task_SupportProxy_start__E                                 
UNDEFED   ti_sysbios_knl_Task_SupportProxy_start__E__mangled__                      
1001c2f9  ti_sysbios_knl_Task_SupportProxy_swap__E                                  
UNDEFED   ti_sysbios_knl_Task_SupportProxy_swap__E__mangled__                       
000013f4  ti_sysbios_knl_Task_allBlockedFunc__C                                     
1001b361  ti_sysbios_knl_Task_allBlockedFunction__I                                 
1001b611  ti_sysbios_knl_Task_blockI__E                                             
1001b125  ti_sysbios_knl_Task_construct                                             
1001ae19  ti_sysbios_knl_Task_create                                                
000013f8  ti_sysbios_knl_Task_defaultStackHeap__C                                   
000013fc  ti_sysbios_knl_Task_defaultStackSize__C                                   
1001c2fd  ti_sysbios_knl_Task_delete                                                
1001c301  ti_sysbios_knl_Task_destruct                                              
1001c0f1  ti_sysbios_knl_Task_disable__E                                            
1001c23f  ti_sysbios_knl_Task_enable__E                                             
1001be05  ti_sysbios_knl_Task_enter__I                                              
1001b425  ti_sysbios_knl_Task_exit__E                                               
00001412  ti_sysbios_knl_Task_initStackFlag__C                                      
00001400  ti_sysbios_knl_Task_numConstructedTasks__C                                
1001a611  ti_sysbios_knl_Task_postInit__I                                           
1001b735  ti_sysbios_knl_Task_processVitalTaskFlag__I                               
1001be25  ti_sysbios_knl_Task_restoreHwi__E                                         
1001ba45  ti_sysbios_knl_Task_restore__E                                            
1001b175  ti_sysbios_knl_Task_schedule__I                                           
1001c1e1  ti_sysbios_knl_Task_self__E                                               
0000474d  ti_sysbios_knl_Task_setPri__E                                             
1001bf7d  ti_sysbios_knl_Task_sleepTimeout__I                                       
1001a9d9  ti_sysbios_knl_Task_sleep__E                                              
1001ae75  ti_sysbios_knl_Task_startCore__E                                          
1001c305  ti_sysbios_knl_Task_startup__E                                            
1001ca6d  ti_sysbios_knl_Task_swapReturn                                            
1001b9a1  ti_sysbios_knl_Task_unblockI__E                                           
1001bfb1  ti_sysbios_knl_Task_unblock__E                                            
1001b3a5  ti_sysbios_knl_Task_yield__E                                              
00001494  ti_sysbios_rom_ROM_AONRTCChannelEnable                                    
00001498  ti_sysbios_rom_ROM_AONRTCCompareValueSet                                  
0000149c  ti_sysbios_rom_ROM_AONRTCCurrentCompareValueGet                           
000014a0  ti_sysbios_rom_ROM_AONRTCEventClear                                       
000014a4  ti_sysbios_rom_ROM_ti_sysbios_family_arm_cc26xx_Timer_getCount64__E       
000014a8  ti_sysbios_rom_ROM_ti_sysbios_family_arm_cc26xx_Timer_getCurrentTick__E   
000014ac  ti_sysbios_rom_ROM_ti_sysbios_family_arm_cc26xx_Timer_getMaxTicks__E      
000014b0  ti_sysbios_rom_ROM_ti_sysbios_family_arm_cc26xx_Timer_initDevice__I       
000014b4  ti_sysbios_rom_ROM_ti_sysbios_family_arm_cc26xx_Timer_setNextTick__E      
000014b8  ti_sysbios_rom_ROM_ti_sysbios_family_arm_cc26xx_Timer_setThreshold__I     
000014bc  ti_sysbios_rom_ROM_ti_sysbios_family_arm_cc26xx_Timer_start__E            
000014c0  ti_sysbios_rom_ROM_ti_sysbios_family_arm_cc26xx_TimestampProvider_get32__E
000014c4  ti_sysbios_rom_ROM_xdc_runtime_Startup_getState__I                        
000014c8  ti_sysbios_rom_ROM_xdc_runtime_System_SupportProxy_abort__E               
000014cc  ti_sysbios_rom_ROM_xdc_runtime_System_SupportProxy_exit__E                
00005d03  ti_sysbios_rom_cortexm_cc13xx_CC13xx_badRomRevision__E                    
00009435  ti_sysbios_rom_cortexm_cc13xx_CC13xx_checkRevision__E                     
1001ca97  ti_sysbios_rom_cortexm_cc13xx_CC13xx_getRevision__E                       
20002cd0  trngCC26XXObjects                                                         
0000a118  trngDriverTable                                                           
0000a044  txPowerTable                                                              
0000a110  txPwrTbl                                                                  
20002028  user0Cfg                                                                  
0000846d  utilExtractUuid16                                                         
0000a03c  validRangeUUID                                                            
00001428  xdc_runtime_Assert_E_assertFailed__C                                      
1001c5a5  xdc_runtime_Assert_raise__I                                               
1001c6e9  xdc_runtime_Core_assignLabel__I                                           
1001c5ed  xdc_runtime_Core_assignParams__I                                          
1001c635  xdc_runtime_Core_constructObject__I                                       
1001c401  xdc_runtime_Core_createObject__I                                          
1001c4f5  xdc_runtime_Core_deleteObject__I                                          
1001c79d  xdc_runtime_Core_destructObject__I                                        
0000142c  xdc_runtime_Error_E_memory__C                                             
1001c7b5  xdc_runtime_Error_check__E                                                
1001c83d  xdc_runtime_Error_init__E                                                 
00001430  xdc_runtime_Error_policyFxn__C                                            
1001c483  xdc_runtime_Error_policySpin__E                                           
00001490  xdc_runtime_Error_policy__C                                               
1001c765  xdc_runtime_Error_raiseX__E                                               
1001c881  xdc_runtime_Gate_enterSystem__E                                           
1001c875  xdc_runtime_Gate_leaveSystem__E                                           
00001434  xdc_runtime_IGateProvider_Interface__BASE__C                              
00001438  xdc_runtime_IHeap_Interface__BASE__C                                      
0000143c  xdc_runtime_IModule_Interface__BASE__C                                    
UNDEFED   xdc_runtime_Main_Module_GateProxy_Handle__label__S                        
UNDEFED   xdc_runtime_Main_Module_GateProxy_Object__delete__S                       
UNDEFED   xdc_runtime_Main_Module_GateProxy_query__E                                
00001440  xdc_runtime_Main_Module__diagsEnabled__C                                  
00001444  xdc_runtime_Main_Module__diagsIncluded__C                                 
00001448  xdc_runtime_Main_Module__diagsMask__C                                     
00001488  xdc_runtime_Main_Module__id__C                                            
1001bc85  xdc_runtime_Memory_HeapProxy_Handle__label__S                             
UNDEFED   xdc_runtime_Memory_HeapProxy_Handle__label__S__mangled__                  
1001bca5  xdc_runtime_Memory_HeapProxy_Object__delete__S                            
UNDEFED   xdc_runtime_Memory_HeapProxy_Object__delete__S__mangled__                 
1001c885  xdc_runtime_Memory_HeapProxy_alloc__E                                     
1001c889  xdc_runtime_Memory_HeapProxy_free__E                                      
0000148a  xdc_runtime_Memory_Module__id__C                                          
20000200  xdc_runtime_Memory_Module__state__V                                       
1001c485  xdc_runtime_Memory_alloc__E                                               
1001c849  xdc_runtime_Memory_calloc__E                                              
0000144c  xdc_runtime_Memory_defaultHeapInstance__C                                 
1001c7fd  xdc_runtime_Memory_free__E                                                
1001c855  xdc_runtime_Memory_getMaxDefaultTypeAlign__E                              
1001c781  xdc_runtime_Memory_valloc__E                                              
2000207c  xdc_runtime_Registry_Module__state__V                                     
00008dc1  xdc_runtime_Registry_findById__E                                          
200001f0  xdc_runtime_Startup_Module__state__V                                      
00000001  xdc_runtime_Startup__EXECFXN__C                                           
00000001  xdc_runtime_Startup__RESETFXN__C                                          
00001450  xdc_runtime_Startup_execImpl__C                                           
1001c555  xdc_runtime_Startup_exec__E                                               
000095a9  xdc_runtime_Startup_exec__I                                               
0000a1a4  xdc_runtime_Startup_firstFxns__A                                          
00001418  xdc_runtime_Startup_firstFxns__C                                          
00006629  xdc_runtime_Startup_getState__I                                           
00001420  xdc_runtime_Startup_lastFxns__C                                           
00001454  xdc_runtime_Startup_maxPasses__C                                          
000098d1  xdc_runtime_Startup_reset__I                                              
000098dd  xdc_runtime_Startup_rtsDone__E                                            
0000a160  xdc_runtime_Startup_sfxnRts__A                                            
00001458  xdc_runtime_Startup_sfxnRts__C                                            
0000a090  xdc_runtime_Startup_sfxnTab__A                                            
0000145c  xdc_runtime_Startup_sfxnTab__C                                            
00001460  xdc_runtime_Startup_startModsFxn__C                                       
1001c309  xdc_runtime_Startup_startMods__I                                          
00001464  xdc_runtime_SysCallback_abortFxn__C                                       
1001c80d  xdc_runtime_SysCallback_abort__E                                          
00006a33  xdc_runtime_SysCallback_defaultAbort                                      
00006f5f  xdc_runtime_SysCallback_defaultExit                                       
00007157  xdc_runtime_SysCallback_defaultFlush                                      
00007333  xdc_runtime_SysCallback_defaultPutch                                      
00009a33  xdc_runtime_SysCallback_defaultReady                                      
00001468  xdc_runtime_SysCallback_exitFxn__C                                        
1001c81d  xdc_runtime_SysCallback_exit__E                                           
0000a1c8  xdc_runtime_SysCallback_flushFxn__C                                       
0000969d  xdc_runtime_SysCallback_flush__E                                          
0000a1cc  xdc_runtime_SysCallback_putchFxn__C                                       
000096ad  xdc_runtime_SysCallback_putch__E                                          
0000a1d0  xdc_runtime_SysCallback_readyFxn__C                                       
000096bd  xdc_runtime_SysCallback_ready__E                                          
1001bbe5  xdc_runtime_System_Module_GateProxy_Handle__label__S                      
UNDEFED   xdc_runtime_System_Module_GateProxy_Handle__label__S__mangled__           
1001bc05  xdc_runtime_System_Module_GateProxy_Object__delete__S                     
UNDEFED   xdc_runtime_System_Module_GateProxy_Object__delete__S__mangled__          
1001c88d  xdc_runtime_System_Module_GateProxy_enter__E                              
1001c891  xdc_runtime_System_Module_GateProxy_leave__E                              
1001c265  xdc_runtime_System_Module_GateProxy_query__E                              
UNDEFED   xdc_runtime_System_Module_GateProxy_query__E__mangled__                   
200001f8  xdc_runtime_System_Module__state__V                                       
1001c87b  xdc_runtime_System_Module_startup__E                                      
UNDEFED   xdc_runtime_System_SupportProxy_abort__E                                  
UNDEFED   xdc_runtime_System_SupportProxy_exit__E                                   
0000969d  xdc_runtime_System_SupportProxy_flush__E                                  
000096ad  xdc_runtime_System_SupportProxy_putch__E                                  
000096bd  xdc_runtime_System_SupportProxy_ready__E                                  
0000146c  xdc_runtime_System_abortFxn__C                                            
1001c895  xdc_runtime_System_abortSpin__E                                           
0000726d  xdc_runtime_System_abortStd__E                                            
1001c745  xdc_runtime_System_abort__E                                               
1001c67d  xdc_runtime_System_atexit__E                                              
0000003d  xdc_runtime_System_doPrint__I                                             
00001470  xdc_runtime_System_exitFxn__C                                             
1001c897  xdc_runtime_System_exitSpin__E                                            
00007275  xdc_runtime_System_exitStd__E                                             
1001c7cd  xdc_runtime_System_exit__E                                                
0000a1d4  xdc_runtime_System_extendFxn__C                                           
000059a1  xdc_runtime_System_formatNum__I                                           
00001474  xdc_runtime_System_maxAtexitHandlers__C                                   
000030a9  xdc_runtime_System_printfExtend__I                                        
000090b9  xdc_runtime_System_printf__E                                              
00009a37  xdc_runtime_System_printf_va__F                                           
1001c6b5  xdc_runtime_System_processAtExit__E                                       
00008541  xdc_runtime_System_putchar__I                                             
00008af5  xdc_runtime_System_vprintf__E                                             
000096cd  xdc_runtime_System_vsnprintf__E                                           
0000148c  xdc_runtime_Text_charCnt__C                                               
0000a06b  xdc_runtime_Text_charTab__A                                               
00001478  xdc_runtime_Text_charTab__C                                               
1001c719  xdc_runtime_Text_cordText__E                                              
0000148e  xdc_runtime_Text_isLoaded__C                                              
0000147c  xdc_runtime_Text_nameEmpty__C                                             
00001480  xdc_runtime_Text_nameStatic__C                                            
00001484  xdc_runtime_Text_nameUnknown__C                                           
00008011  xdc_runtime_Text_printVisFxn__I                                           
00006685  xdc_runtime_Text_putLab__E                                                
00004b85  xdc_runtime_Text_putMod__E                                                
00004925  xdc_runtime_Text_putSite__E                                               
0000a172  xdc_runtime_Text_registryModsLastId__C                                    
1001c7e5  xdc_runtime_Text_ropeText__E                                              
0000a1dc  xdc_runtime_Text_unnamedModsLastId__C                                     
0000a1d8  xdc_runtime_Text_visitRopeFxn__C                                          
00009971  xdc_runtime_Text_visitRope__I                                             
000072ad  xdc_runtime_Text_xprintf__I                                               
1001c82d  xdc_runtime_Timestamp_SupportProxy_get32__E                               
000097a1  xdc_runtime_Timestamp_SupportProxy_get32__E__mangled__                    
1001b9cd  xdc_runtime_Timestamp_SupportProxy_get64__E                               
UNDEFED   xdc_runtime_Timestamp_SupportProxy_get64__E__mangled__                    
1001c12b  xdc_runtime_Timestamp_SupportProxy_getFreq__E                             
UNDEFED   xdc_runtime_Timestamp_SupportProxy_getFreq__E__mangled__                  
1001c82d  xdc_runtime_Timestamp_get32__E                                            
UNDEFED   xdc_runtime_Timestamp_get32__E                                            
1001b9cd  xdc_runtime_Timestamp_get64__E                                            
UNDEFED   xdc_runtime_Timestamp_get64__E                                            
1001c12b  xdc_runtime_Timestamp_getFreq__E                                          
UNDEFED   xdc_runtime_Timestamp_getFreq__E                                          
10015d19  zADD                                                                      
10015eb5  zADD32                                                                    
10015de9  zMACC32                                                                   
10015f0d  zMULT32                                                                   
10015bcd  zSET                                                                      
10015d5d  zSUB                                                                      
10015e69  zSUB32                                                                    


GLOBAL SYMBOLS: SORTED BY Symbol Address 

address   name                                                                      
-------   ----                                                                      
00000000  __ASM__                                                                   
00000000  ti_sysbios_family_arm_m3_Hwi_resetVectors                                 
00000001  xdc_runtime_Startup__EXECFXN__C                                           
00000001  xdc_runtime_Startup__RESETFXN__C                                          
0000003d  xdc_runtime_System_doPrint__I                                             
00000081  __ISA__                                                                   
00000093  __PLAT__                                                                  
000000ba  __TARG__                                                                  
000000df  __TRDR__                                                                  
00000400  __STACK_SIZE                                                              
00000991  GAPRole_SetParameter                                                      
00000bcd  NOROM_SysCtrlSetRechargeBeforePowerDown                                   
00000dfd  __aeabi_uldivmod                                                          
00001000  ti_sysbios_knl_Task_Object__PARAMS__C                                     
0000103c  ti_sysbios_knl_Mailbox_Object__PARAMS__C                                  
00001070  ti_sysbios_family_arm_m3_Hwi_Object__PARAMS__C                            
000010a0  ti_sysbios_hal_Hwi_Object__PARAMS__C                                      
000010cc  ti_sysbios_heaps_HeapMem_Module__FXNS__C                                  
000010f4  ti_sysbios_knl_Swi_Object__PARAMS__C                                      
0000111c  ti_sysbios_gates_GateHwi_Module__FXNS__C                                  
00001140  ti_sysbios_gates_GateMutex_Module__FXNS__C                                
00001164  ti_sysbios_heaps_HeapMem_Object__PARAMS__C                                
00001188  ti_sysbios_knl_Clock_Object__PARAMS__C                                    
000011ac  ti_sysbios_knl_Semaphore_Object__PARAMS__C                                
000011d0  ti_sysbios_family_arm_m3_Hwi_Object__DESC__C                              
000011f0  ti_sysbios_gates_GateHwi_Object__DESC__C                                  
00001210  ti_sysbios_gates_GateMutex_Object__DESC__C                                
00001230  ti_sysbios_hal_Hwi_Object__DESC__C                                        
00001250  ti_sysbios_heaps_HeapMem_Object__DESC__C                                  
00001270  ti_sysbios_knl_Clock_Object__DESC__C                                      
00001290  ti_sysbios_knl_Mailbox_Object__DESC__C                                    
000012b0  ti_sysbios_knl_Queue_Object__DESC__C                                      
000012d0  ti_sysbios_knl_Semaphore_Object__DESC__C                                  
000012f0  ti_sysbios_knl_Swi_Object__DESC__C                                        
00001310  ti_sysbios_knl_Task_Object__DESC__C                                       
00001330  ti_sysbios_gates_GateHwi_Object__PARAMS__C                                
00001348  ti_sysbios_gates_GateMutex_Object__PARAMS__C                              
00001360  ti_sysbios_knl_Queue_Object__PARAMS__C                                    
00001378  ti_sysbios_knl_Idle_funcList__C                                           
00001381  GATTServApp_AddService                                                    
00001384  ti_sysbios_family_arm_cc26xx_Timer_startupNeeded__C                       
00001388  ti_sysbios_family_arm_m3_Hwi_E_alreadyDefined__C                          
0000138c  ti_sysbios_family_arm_m3_Hwi_E_hwiLimitExceeded__C                        
00001390  ti_sysbios_family_arm_m3_Hwi_NUM_INTERRUPTS__C                            
00001394  ti_sysbios_family_arm_m3_Hwi_Object__count__C                             
00001398  ti_sysbios_family_arm_m3_Hwi_Object__table__C                             
0000139c  ti_sysbios_family_arm_m3_Hwi_ccr__C                                       
000013a0  ti_sysbios_family_arm_m3_Hwi_excHandlerFunc__C                            
000013a4  ti_sysbios_family_arm_m3_Hwi_nullIsrFunc__C                               
000013a8  ti_sysbios_family_arm_m3_Hwi_numSparseInterrupts__C                       
000013ac  ti_sysbios_family_arm_m3_Hwi_priGroup__C                                  
000013b0  ti_sysbios_family_arm_m3_TaskSupport_stackAlignment__C                    
000013b4  ti_sysbios_heaps_HeapMem_E_memory__C                                      
000013b8  ti_sysbios_heaps_HeapMem_Module__gateObj__C                               
000013bc  ti_sysbios_heaps_HeapMem_Object__count__C                                 
000013c0  ti_sysbios_heaps_HeapMem_Object__table__C                                 
000013c4  ti_sysbios_heaps_HeapMem_reqAlign__C                                      
000013c8  ti_sysbios_knl_Clock_serviceMargin__C                                     
000013cc  ti_sysbios_knl_Mailbox_Object__count__C                                   
000013d0  ti_sysbios_knl_Mailbox_Object__table__C                                   
000013d4  ti_sysbios_knl_Mailbox_maxTypeAlign__C                                    
000013d8  ti_sysbios_knl_Queue_Object__count__C                                     
000013dc  ti_sysbios_knl_Queue_Object__table__C                                     
000013e0  ti_sysbios_knl_Swi_Object__count__C                                       
000013e4  ti_sysbios_knl_Swi_Object__table__C                                       
000013e8  ti_sysbios_knl_Swi_numPriorities__C                                       
000013ec  ti_sysbios_knl_Task_Object__count__C                                      
000013f0  ti_sysbios_knl_Task_Object__table__C                                      
000013f4  ti_sysbios_knl_Task_allBlockedFunc__C                                     
000013f8  ti_sysbios_knl_Task_defaultStackHeap__C                                   
000013fc  ti_sysbios_knl_Task_defaultStackSize__C                                   
00001400  ti_sysbios_knl_Task_numConstructedTasks__C                                
00001405  DefaultAssertCback                                                        
00001406  ti_sysbios_family_arm_cc26xx_Timer_Module__id__C                          
00001408  ti_sysbios_family_arm_cc26xx_TimestampProvider_useClockTimer__C           
0000140a  ti_sysbios_family_arm_m3_Hwi_Module__id__C                                
0000140c  ti_sysbios_gates_GateHwi_Module__id__C                                    
0000140e  ti_sysbios_gates_GateMutex_Module__id__C                                  
00001410  ti_sysbios_heaps_HeapMem_Module__id__C                                    
00001412  ti_sysbios_knl_Task_initStackFlag__C                                      
00001414  ti_sysbios_knl_Clock_tickMode__C                                          
00001418  xdc_runtime_Startup_firstFxns__C                                          
00001420  xdc_runtime_Startup_lastFxns__C                                           
00001428  xdc_runtime_Assert_E_assertFailed__C                                      
0000142c  xdc_runtime_Error_E_memory__C                                             
00001430  xdc_runtime_Error_policyFxn__C                                            
00001434  xdc_runtime_IGateProvider_Interface__BASE__C                              
00001438  xdc_runtime_IHeap_Interface__BASE__C                                      
0000143c  xdc_runtime_IModule_Interface__BASE__C                                    
00001440  xdc_runtime_Main_Module__diagsEnabled__C                                  
00001444  xdc_runtime_Main_Module__diagsIncluded__C                                 
00001448  xdc_runtime_Main_Module__diagsMask__C                                     
0000144c  xdc_runtime_Memory_defaultHeapInstance__C                                 
00001450  xdc_runtime_Startup_execImpl__C                                           
00001454  xdc_runtime_Startup_maxPasses__C                                          
00001458  xdc_runtime_Startup_sfxnRts__C                                            
0000145c  xdc_runtime_Startup_sfxnTab__C                                            
00001460  xdc_runtime_Startup_startModsFxn__C                                       
00001464  xdc_runtime_SysCallback_abortFxn__C                                       
00001468  xdc_runtime_SysCallback_exitFxn__C                                        
0000146c  xdc_runtime_System_abortFxn__C                                            
00001470  xdc_runtime_System_exitFxn__C                                             
00001474  xdc_runtime_System_maxAtexitHandlers__C                                   
00001478  xdc_runtime_Text_charTab__C                                               
0000147c  xdc_runtime_Text_nameEmpty__C                                             
00001480  xdc_runtime_Text_nameStatic__C                                            
00001484  xdc_runtime_Text_nameUnknown__C                                           
00001488  xdc_runtime_Main_Module__id__C                                            
0000148a  xdc_runtime_Memory_Module__id__C                                          
0000148c  xdc_runtime_Text_charCnt__C                                               
0000148e  xdc_runtime_Text_isLoaded__C                                              
00001490  xdc_runtime_Error_policy__C                                               
00001494  ti_sysbios_rom_ROM_AONRTCChannelEnable                                    
00001498  ti_sysbios_rom_ROM_AONRTCCompareValueSet                                  
0000149c  ti_sysbios_rom_ROM_AONRTCCurrentCompareValueGet                           
000014a0  ti_sysbios_rom_ROM_AONRTCEventClear                                       
000014a4  ti_sysbios_rom_ROM_ti_sysbios_family_arm_cc26xx_Timer_getCount64__E       
000014a8  ti_sysbios_rom_ROM_ti_sysbios_family_arm_cc26xx_Timer_getCurrentTick__E   
000014ac  ti_sysbios_rom_ROM_ti_sysbios_family_arm_cc26xx_Timer_getMaxTicks__E      
000014b0  ti_sysbios_rom_ROM_ti_sysbios_family_arm_cc26xx_Timer_initDevice__I       
000014b4  ti_sysbios_rom_ROM_ti_sysbios_family_arm_cc26xx_Timer_setNextTick__E      
000014b8  ti_sysbios_rom_ROM_ti_sysbios_family_arm_cc26xx_Timer_setThreshold__I     
000014bc  ti_sysbios_rom_ROM_ti_sysbios_family_arm_cc26xx_Timer_start__E            
000014c0  ti_sysbios_rom_ROM_ti_sysbios_family_arm_cc26xx_TimestampProvider_get32__E
000014c4  ti_sysbios_rom_ROM_xdc_runtime_Startup_getState__I                        
000014c8  ti_sysbios_rom_ROM_xdc_runtime_System_SupportProxy_abort__E               
000014cc  ti_sysbios_rom_ROM_xdc_runtime_System_SupportProxy_exit__E                
000014d0  ti_sysbios_gates_GateMutex_Instance_State_sem__O                          
000014d4  ti_sysbios_knl_Clock_Module_State_clockQ__O                               
000014d8  ti_sysbios_knl_Mailbox_Instance_State_dataQue__O                          
000014dc  ti_sysbios_knl_Mailbox_Instance_State_dataSem__O                          
000014e0  ti_sysbios_knl_Mailbox_Instance_State_freeQue__O                          
000014e4  ti_sysbios_knl_Mailbox_Instance_State_freeSem__O                          
000014e8  ti_sysbios_knl_Semaphore_Instance_State_pendQ__O                          
000014ec  ti_sysbios_knl_Task_Module_State_inactiveQ__O                             
000014f1  Power_sleep                                                               
00001719  __aeabi_ldivmod                                                           
00001b25  ADXL_read                                                                 
00001ce9  PIN_init                                                                  
00001e91  RF_cancelCmd                                                              
00002039  PowerCC26XX_doCalibrate                                                   
000024f7  __aeabi_idiv0                                                             
000024f9  RF_postCmd                                                                
000027bd  bme68x_set_conf                                                           
00002901  NOROM_SetupAfterColdResetWakeupFromShutDownCfg3                           
00002a31  Power_init                                                                
00002c85  GAPRole_GetParameter                                                      
00002fb1  I2CCC26XX_open                                                            
000030a9  xdc_runtime_System_printfExtend__I                                        
0000328d  NOROM_SetupAfterColdResetWakeupFromShutDownCfg2                           
0000354d  NOROM_RFCRTrim                                                            
00003625  NOROM_RFCRfTrimRead                                                       
000036f9  Power_releaseDependency                                                   
000037cd  Power_setDependency                                                       
00003c81  I2CCC26XX_transfer                                                        
00003d43  __aeabi_ldiv0                                                             
00003d45  RF_open                                                                   
00003e05  PowerCC26XX_standbyPolicy                                                 
00004239  bme68x_set_heatr_conf                                                     
000042e1  DevInfo_SetParameter                                                      
00004385  NOROM_SetupTrimDevice                                                     
00004385  ti_sysbios_family_arm_cc26xx_Boot_trimDevice                              
000044cd  NOROM_SetupAfterColdResetWakeupFromShutDownCfg1                           
0000456d  __TI_auto_init                                                            
0000460d  bme68x_set_regs                                                           
0000474d  ti_sysbios_knl_Task_setPri__E                                             
00004889  __aeabi_memcpy                                                            
00004889  __aeabi_memcpy4                                                           
00004889  __aeabi_memcpy8                                                           
00004889  memcpy                                                                    
00004925  xdc_runtime_Text_putSite__E                                               
000049bf  ti_sysbios_BIOS_linkedWithIncorrectBootLibrary__E                         
000049c1  PIN_open                                                                  
00004a59  ti_sysbios_knl_Clock_workFuncDynamic__E                                   
00004af1  GATTServApp_ProcessCharCfg                                                
00004b85  xdc_runtime_Text_putMod__E                                                
00004c19  I2CCC26XX_cancel                                                          
00004ca9  bme68x_set_op_mode                                                        
00004e55  NOROM_OSCHF_GetStartupTime                                                
00004e55  PowerCC26XX_getXoscStartupTime                                            
00005109  ICall_heapMalloc                                                          
00005211  TRNGCC26XX_getNumber                                                      
00005295  bme68x_i2c_write                                                          
00005319  RF_pendCmd                                                                
00005399  aquireI2CInterface                                                        
00005499  ICall_createRemoteTasks                                                   
00005515  __aeabi_memclr                                                            
00005515  __aeabi_memclr4                                                           
00005515  __aeabi_memclr8                                                           
00005517  __aeabi_memset                                                            
00005517  __aeabi_memset4                                                           
00005517  __aeabi_memset8                                                           
0000551d  memset                                                                    
00005607  ti_sysbios_BIOS_nullFunc__I                                               
00005609  ICallPlatform_pwrUpdActivityCounter                                       
000056f1  PowerCC26XX_auxISR                                                        
000057d9  main                                                                      
000058c1  NOROM_ChipInfo_GetHwRevision                                              
00005931  NOROM_SetupSetVddrLevel                                                   
000059a1  xdc_runtime_System_formatNum__I                                           
00005a0f  ti_sysbios_knl_Clock_triggerFunc__I                                       
00005a11  ADXL_processCharChangeEvt                                                 
00005a7d  BME_processCharChangeEvt                                                  
00005ae9  ICall_heapInit                                                            
00005b55  NOROM_SetupGetTrimForAmpcompCtrl                                          
00005bc1  PowerCC26XX_calibrate                                                     
00005d03  ti_sysbios_rom_cortexm_cc13xx_CC13xx_badRomRevision__E                    
00005d05  NOROM_SetupGetTrimForAnabypassValue1                                      
00005d6d  NOROM_SysCtrl_DCDC_VoltageConditionalControl                              
00005dd5  SensorTagConnectionControl_update                                         
00005ea5  I2CCC26XX_close                                                           
00005f6d  NOROM_OSCHF_AttemptToSwitchToXosc                                         
00005fd1  bme68x_get_data                                                           
00006035  bme68x_get_meas_dur                                                       
00006099  bme68x_i2c_read                                                           
000060fd  ti_sysbios_family_arm_cc26xx_Timer_start__E                               
000061c1  NOROM_OSCClockSourceSet                                                   
00006221  PowerCC26XX_RCOSC_clockFunc                                               
00006281  RF_getCurrentTime                                                         
000064b9  NOROM_SysCtrlAdjustRechargeAfterPowerDown                                 
00006629  xdc_runtime_Startup_getState__I                                           
00006685  xdc_runtime_Text_putLab__E                                                
00006739  PIN_remove                                                                
00006791  PowerCC26XX_initiateCalibration                                           
000067e9  ADXL_setParameter                                                         
0000683d  bme68x_soft_reset                                                         
00006a33  xdc_runtime_SysCallback_defaultAbort                                      
00006a35  BME_setParameter                                                          
00006a85  GAP_DeviceInit                                                            
00006ad5  GAP_UpdateAdvertisingData                                                 
00006b75  NOROM_SetupSetCacheModeAccordingToCcfgSetting                             
00006bc5  RF_getInfo                                                                
00006c65  bme68x_get_regs                                                           
00006d01  ICallPlatform_pwrRegisterNotify                                           
00006ec9  copy_in                                                                   
00006f15  GATTServApp_ProcessCCCWriteReq                                            
00006f5f  xdc_runtime_SysCallback_defaultExit                                       
00006f61  AssertHandler                                                             
00006ff1  NOROM_ChipInfo_GetChipFamily                                              
00007039  Util_constructClock                                                       
00007111  get_data                                                                  
00007157  xdc_runtime_SysCallback_defaultFlush                                      
00007159  GAP_TerminateLinkReq                                                      
000071e1  ResetISR                                                                  
000071e1  _c_int00                                                                  
00007269  C$$EXIT                                                                   
0000726d  abort                                                                     
0000726d  xdc_runtime_System_abortStd__E                                            
00007275  exit                                                                      
00007275  xdc_runtime_System_exitStd__E                                             
000072ad  xdc_runtime_Text_xprintf__I                                               
00007333  xdc_runtime_SysCallback_defaultPutch                                      
00007335  GAPRole_createTask                                                        
00007375  PowerCC26XX_isStableXOSC_HF                                               
000073b5  RF_getRssi                                                                
000073f5  __aeabi_uidiv                                                             
000073f5  __aeabi_uidivmod                                                          
00007435  ADXL_createTask                                                           
00007471  BME_createTask                                                            
000074ad  GAP_GetParamValue                                                         
000074e9  GATTServApp_RegisterService                                               
00007525  ICallPlatform_pwrConfigACAction                                           
00007561  NOROM_OSC_HPOSCRelativeFrequencyOffsetGet                                 
0000759d  NOROM_RFCSynthPowerDown                                                   
000075d9  RF_runCmd                                                                 
00007615  SensorTag_createTask                                                      
00007705  GAPBondMgr_LinkEst                                                        
0000773d  GAPRole_SendUpdateParam                                                   
00007775  I2C_init                                                                  
000077e5  Util_restartClock                                                         
00007855  linkDB_NumConns                                                           
0000788d  ti_sysbios_family_arm_cc26xx_Timer_getCurrentTick__E                      
00007931  GAPBondMgr_SetParameter                                                   
00007965  GAP_SetParamValue                                                         
00007a69  ICall_searchServiceEntity                                                 
00007a9d  NOROM_OSCHF_SwitchToRcOscTurnOffXosc                                      
00007ad1  NOROM_TRNGConfigure                                                       
00007b05  PIN_setOutputValue                                                        
00007b6d  bme68x_init                                                               
00007ba1  init_bme                                                                  
00007bd5  osal_snv_read                                                             
00007c09  osal_snv_write                                                            
00007d9d  ti_sysbios_family_arm_cc26xx_Timer_setNextTick__E                         
00007dd1  I2C_open                                                                  
00007e91  NOROM_SetupSetAonRtcSubSecInc                                             
00007ec1  Power_releaseConstraint                                                   
00007ef1  Power_setConstraint                                                       
00007f21  bme68x_interface_init                                                     
00007f51  ti_sysbios_BIOS_atExitFunc__I                                             
00007f81  ti_sysbios_BIOS_startFunc__I                                              
00007fb1  ti_sysbios_family_arm_cc26xx_Timer_initDevice__I                          
00007fe1  ti_sysbios_family_arm_cc26xx_Timer_setThreshold__I                        
00008011  xdc_runtime_Text_printVisFxn__I                                           
00008155  ADXL_init                                                                 
00008181  BME_init                                                                  
000081ad  ICall_freeImpl                                                            
000081ad  ICall_heapFree                                                            
000082e1  NOROM_DDI32RegWrite                                                       
0000830d  NOROM_OSCClockSourceGet                                                   
00008339  NOROM_SetupGetTrimForRadcExtCfg                                           
00008365  PINCC26XX_setMux                                                          
00008391  PIN_setConfig                                                             
000083e9  config_bme                                                                
00008441  ti_sysbios_knl_Clock_getTicksUntilInterrupt__E                            
0000846d  utilExtractUuid16                                                         
000084c3  TRNGCC26XX_isParamValid                                                   
000084ed  Util_enqueueMsg                                                           
00008541  xdc_runtime_System_putchar__I                                             
0000856d  ADXL_addService                                                           
00008595  BME_addService                                                            
000085bd  BME_getParameter                                                          
000085e5  CcService_setParameter                                                    
0000860d  GATTServApp_WriteCharCfg                                                  
00008635  ICall_init                                                                
00008725  NOROM_AONBatMonTemperatureGetDegC                                         
0000874d  PowerCC26XX_switchXOSC_HF                                                 
00008775  Power_registerNotify                                                      
0000879d  SafeHapiVoid                                                              
000087ed  TRNGCC26XX_init                                                           
00008865  ti_sysbios_family_arm_cc26xx_Timer_getMaxTicks__E                         
0000888d  List_put                                                                  
000088b5  ADXL_getParameter                                                         
000088d9  ADXL_reset                                                                
000088fd  BME_reset                                                                 
00008921  GAPBondMgr_LinkTerm                                                       
00008945  GAPBondMgr_Register                                                       
000089b1  PINCC26XX_getPinCount                                                     
000089f9  bme68x_get_op_mode                                                        
00008aad  ti_sysbios_BIOS_registerRTSLock__I                                        
00008ad1  ti_sysbios_BIOS_removeRTSLock__I                                          
00008af5  xdc_runtime_System_vprintf__E                                             
00008b7f  config_heatr                                                              
00008ba1  GATTServApp_InitCharCfg                                                   
00008bc1  GATT_bm_alloc                                                             
00008ca1  NOROM_RFCAdi3VcoLdoVoltageMode                                            
00008cc1  NOROM_RFCDoorbellSendTo                                                   
00008ce1  NOROM_SetupGetTrimForXoscHfCtl                                            
00008d01  Power_unregisterNotify                                                    
00008d81  ti_sysbios_BIOS_rtsLock__I                                                
00008da1  ti_sysbios_knl_Clock_stop__E                                              
00008dc1  xdc_runtime_Registry_findById__E                                          
00008dff  PIN_close                                                                 
00008e1d  Power_getTransitionLatency                                                
00008e79  GATT_bm_free                                                              
00008ee9  NOROM_SetupGetTrimForAmpcompTh2                                           
00008f05  NOROM_SetupGetTrimForRcOscLfRtuneCtuneTrim                                
00008f59  RF_runDirectCmd                                                           
00008f75  RF_runImmediateCmd                                                        
00008fad  TRNGCC26XX_open                                                           
00008fe5  openTRNG                                                                  
00009001  ti_sysbios_family_arm_cc26xx_Timer_dynamicStub__E                         
0000901d  ICall_enterCSImpl                                                         
00009051  List_remove                                                               
0000906b  Util_dequeueMsg                                                           
000090b9  xdc_runtime_System_printf__E                                              
000090d5  ADXL_registerAppCBs                                                       
000090ed  BME_registerAppCBs                                                        
00009105  GAPRole_TerminateConnection                                               
0000911d  GATT_Notification                                                         
00009135  ICallPlatform_pwrDispense                                                 
0000914d  ICallPlatform_pwrRequire                                                  
00009225  NOROM_AONRTCCurrentCompareValueGet                                        
0000923d  NOROM_ChipInfo_GetPackageType                                             
00009255  NOROM_OSCHF_TurnOnXosc                                                    
0000926d  NOROM_RFCCpeIntGetAndClear                                                
00009285  NOROM_SetupGetTrimForAdcShModeEn                                          
0000929d  NOROM_SetupGetTrimForAdcShVbufEn                                          
000092b5  NOROM_SetupGetTrimForAmpcompTh1                                           
000092cd  NOROM_SetupGetTrimForDblrLoopFilterResetVoltage                           
000092e5  NOROM_SetupGetTrimForRcOscLfIBiasTrim                                     
000092fd  NOROM_SetupGetTrimForXoscLfRegulatorAndCmirrwrRatio                       
00009315  Power_idleFunc                                                            
0000935d  SensorTag_updateAdvertisingData                                           
0000938d  gapRole_clockHandler                                                      
000093bd  _args_main                                                                
000093d5  __aeabi_lmul                                                              
00009405  ti_sysbios_BIOS_rtsUnlock__I                                              
0000941d  ti_sysbios_knl_Swi_or__E                                                  
00009435  ti_sysbios_rom_cortexm_cc13xx_CC13xx_checkRevision__E                     
00009463  ICall_leaveCSImpl                                                         
0000948f  NOROM_ThisCodeIsBuiltForCC13xxHwRev20AndLater_HaltIfViolated              
000094a5  driverTable_fnSpinlock                                                    
000094bb  ti_sysbios_BIOS_exitFunc__I                                               
000094d1  DevInfo_AddService                                                        
000094e5  GAPRole_StartDevice                                                       
000094f9  NOROM_AONRTCCurrent64BitValueGet                                          
0000950d  RF_Params_init                                                            
00009535  _nop                                                                      
00009537  _register_unlock                                                          
0000953d  _register_lock                                                            
00009549  strlen                                                                    
00009571  ti_sysbios_knl_Clock_doTick__I                                            
00009585  GATTServApp_FindAttr                                                      
00009597  RF_getCmdOp                                                               
000095a9  xdc_runtime_Startup_exec__I                                               
000095bd  GAP_EndDiscoverable                                                       
000095cd  GATTServApp_ReadCharCfg                                                   
000095dd  I2C_Params_init                                                           
000095ed  ICallPlatform_pwrGetXOSCStartupTime                                       
0000961d  NOROM_RFCRfTrimSet                                                        
0000962d  NOROM_SetupGetTrimForXoscHfFastStart                                      
0000963d  NOROM_SetupGetTrimForXoscHfIbiastherm                                     
0000964d  RegisterAssertCback                                                       
0000965d  Util_isActive                                                             
0000966d  bme68x_delay_us                                                           
0000968d  ti_sysbios_family_arm_m3_Hwi_post__E                                      
0000968d  ti_sysbios_hal_Hwi_HwiProxy_post__E                                       
0000968d  ti_sysbios_hal_Hwi_post__E                                                
0000969d  xdc_runtime_SysCallback_flush__E                                          
0000969d  xdc_runtime_System_SupportProxy_flush__E                                  
000096ad  xdc_runtime_SysCallback_putch__E                                          
000096ad  xdc_runtime_System_SupportProxy_putch__E                                  
000096bd  xdc_runtime_SysCallback_ready__E                                          
000096bd  xdc_runtime_System_SupportProxy_ready__E                                  
000096cd  xdc_runtime_System_vsnprintf__E                                           
000096dd  ICallPlatform_pwrGetTransitionState                                       
000096eb  ICallPlatform_pwrIsStableXOSCHF                                           
00009731  NOROM_SetupSignExtendVddrTrimValue                                        
0000973f  NOROM_VIMSModeGet                                                         
0000974d  Util_constructQueue                                                       
0000975b  __TI_decompress_none                                                      
000097a1  ti_sysbios_family_arm_cc26xx_TimestampProvider_get32__E                   
000097a1  xdc_runtime_Timestamp_SupportProxy_get32__E__mangled__                    
000097bd  GAP_MakeDiscoverable                                                      
000097c9  GAP_TerminateAuth                                                         
000097d5  GAP_UpdateLinkParamReq                                                    
000097e1  GAP_UpdateLinkParamReqReply                                               
000097ed  GGS_SetParameter                                                          
00009835  NOROM_CPUcpsid                                                            
00009841  NOROM_CPUcpsie                                                            
0000984d  Power_getConstraintMask                                                   
00009859  Power_getDependencyCount                                                  
00009865  Power_getTransitionState                                                  
00009889  __TI_zero_init                                                            
000098a1  releaseI2CInterface                                                       
000098ad  ti_sysbios_BIOS_getThreadType__E                                          
000098b9  ti_sysbios_hal_Hwi_Params__init__S                                        
000098c5  ti_sysbios_knl_Swi_getTrigger__E                                          
000098d1  xdc_runtime_Startup_reset__I                                              
000098dd  xdc_runtime_Startup_rtsDone__E                                            
000098e9  I2CCC26XX_init                                                            
000098f3  I2C_close                                                                 
000098fd  I2C_transfer                                                              
00009907  ICallPlatform_pwrSwitchXOSCHF                                             
0000991b  List_empty                                                                
00009925  SensorTag_charValueChangeCB                                               
00009939  GATT_Indication                                                           
00009949  RF_flushCmd                                                               
00009971  xdc_runtime_Text_visitRope__I                                             
00009979  GGS_AddService                                                            
0000997f  I2CCC26XX_control                                                         
00009985  ICall_mallocImpl                                                          
0000998b  NOROM_CPUdelay                                                            
00009991  __xdc__init                                                               
0000999d  __TI_decompress_rle24                                                     
000099fd  ti_sysbios_family_arm_m3_Hwi_setFunc__E                                   
00009a03  HwiP_disable                                                              
00009a0b  List_head                                                                 
00009a0f  List_next                                                                 
00009a17  Util_startClock                                                           
00009a1b  Util_stopClock                                                            
00009a27  ti_sysbios_family_arm_cc26xx_Timer_getCount64__E                          
00009a2b  ti_sysbios_knl_Clock_isActive__E                                          
00009a2f  ti_sysbios_knl_Queue_insert__E                                            
00009a33  xdc_runtime_SysCallback_defaultReady                                      
00009a37  xdc_runtime_System_printf_va__F                                           
00009e14  resourceDB                                                                
00009e60  rfDriverTable                                                             
00009f74  ccServiceServUUID                                                         
00009f84  ccServicechar1UUID                                                        
00009f94  ccServicechar2UUID                                                        
00009fa4  ccServicechar3UUID                                                        
00009fe8  i2cCC26xxHWAttrs                                                          
0000a018  primaryServiceUUID                                                        
0000a01a  characterUUID                                                             
0000a01c  charUserDescUUID                                                          
0000a01e  clientCharCfgUUID                                                         
0000a020  gapServiceUUID                                                            
0000a022  gattServiceUUID                                                           
0000a024  secondaryServiceUUID                                                      
0000a026  includeUUID                                                               
0000a028  charExtPropsUUID                                                          
0000a02a  servCharCfgUUID                                                           
0000a02c  charFormatUUID                                                            
0000a02e  charAggFormatUUID                                                         
0000a030  deviceNameUUID                                                            
0000a032  appearanceUUID                                                            
0000a034  periPrivacyFlagUUID                                                       
0000a036  reconnectAddrUUID                                                         
0000a038  periConnParamUUID                                                         
0000a03a  serviceChangedUUID                                                        
0000a03c  validRangeUUID                                                            
0000a03e  extReportRefUUID                                                          
0000a040  reportRefUUID                                                             
0000a044  txPowerTable                                                              
0000a06b  xdc_runtime_Text_charTab__A                                               
0000a06c  I2C_config                                                                
0000a090  xdc_runtime_Startup_sfxnTab__A                                            
0000a0b4  I2CCC26XX_fxnTable                                                        
0000a0d4  devInfoServUUID                                                           
0000a0d6  devInfoSystemIdUUID                                                       
0000a0d8  devInfoModelNumberUUID                                                    
0000a0da  devInfoSerialNumberUUID                                                   
0000a0dc  devInfoFirmwareRevUUID                                                    
0000a0de  devInfoHardwareRevUUID                                                    
0000a0e0  devInfoSoftwareRevUUID                                                    
0000a0e2  devInfoMfrNameUUID                                                        
0000a0e4  devInfo11073CertUUID                                                      
0000a0e6  devInfoPnpIdUUID                                                          
0000a110  txPwrTbl                                                                  
0000a118  trngDriverTable                                                           
0000a140  ccServiceCBs                                                              
0000a154  devInfoCBs                                                                
0000a160  xdc_runtime_Startup_sfxnRts__A                                            
0000a172  xdc_runtime_Text_registryModsLastId__C                                    
0000a174  PowerCC26XX_config                                                        
0000a184  TRNGCC26XX_config                                                         
0000a194  I2C_defaultParams                                                         
0000a1a4  xdc_runtime_Startup_firstFxns__A                                          
0000a1b0  BoardGpioInitTable                                                        
0000a1b4  TRNGCC26XXHWAttrs                                                         
0000a1bc  ti_sysbios_knl_Clock_tickPeriod__C                                        
0000a1c0  ti_sysbios_knl_Clock_triggerClock__C                                      
0000a1c4  ti_sysbios_knl_Idle_funcList__A                                           
0000a1c8  xdc_runtime_SysCallback_flushFxn__C                                       
0000a1cc  xdc_runtime_SysCallback_putchFxn__C                                       
0000a1d0  xdc_runtime_SysCallback_readyFxn__C                                       
0000a1d4  xdc_runtime_System_extendFxn__C                                           
0000a1d8  xdc_runtime_Text_visitRopeFxn__C                                          
0000a1dc  xdc_runtime_Text_unnamedModsLastId__C                                     
0000a1e0  __TI_static_base__                                                        
0000aa48  __TI_Handler_Table_Base                                                   
0000aa54  __TI_Handler_Table_Limit                                                  
0000aaa0  __TI_CINIT_Base                                                           
0000ab00  __TI_CINIT_Limit                                                          
0000e0ea  __checksum_value_CommonROM                                                
0001ffa8  __ccfg                                                                    
10014c00  A1_rw                                                                     
10014c00  __checksum_begin_CommonROM                                                
10014c01  COMMON_ROM_BASE_ADDR                                                      
10014c04  P1_ro                                                                     
10014c05  SCALARMUL_init                                                            
10014ced  SCALARMUL_core                                                            
10015019  SCALARMUL_final                                                           
100150e5  SCALARMUL                                                                 
10015101  SAVEPOINT                                                                 
10015141  GETBIT                                                                    
10015155  GETDIGIT                                                                  
100151a5  GETDIGITL2R                                                               
10015215  SelectReg                                                                 
10015229  ATOMICPATTERN                                                             
100154f5  JACADD                                                                    
1001568d  INVERT                                                                    
10015821  SQUAREMULTIPLYWORD                                                        
1001588c  LUTOPCODE                                                                 
10015894  LUTOPSIGN                                                                 
100158ac  LUTC                                                                      
100158c4  LUTSE                                                                     
100158dc  LUTINCI                                                                   
100158f4  LUTJ                                                                      
1001596c  LUTSTATE                                                                  
100159a9  IMPORTLENGTH                                                              
100159ad  IMPORTMODULUS                                                             
100159d1  IMPORTOPERAND                                                             
10015a11  EXPORTOPERAND                                                             
10015a35  IMPORTDATA                                                                
10015a51  SETOPERAND                                                                
10015a6d  COPY                                                                      
10015a85  ZERO                                                                      
10015a91  SETWORD                                                                   
10015a9d  mSET                                                                      
10015bcd  zSET                                                                      
10015bd5  mINVK                                                                     
10015d19  zADD                                                                      
10015d5d  zSUB                                                                      
10015de9  zMACC32                                                                   
10015e69  zSUB32                                                                    
10015eb5  zADD32                                                                    
10015f0d  zMULT32                                                                   
10015f81  mMULT                                                                     
10016551  mADD                                                                      
1001664d  mSUB                                                                      
10016749  mOUT                                                                      
10016975  ssp_KeyInit_Sw                                                            
10016979  sspAesEncrypt_Sw                                                          
10016985  sspKeyExpansion_Sw                                                        
10016a99  sspAesEncryptKeyExp_Sw                                                    
10016af5  sspAesEncryptBasic_Sw                                                     
10016b79  RoundKey_Sw                                                               
10016c29  AddRoundKeySubBytes_Sw                                                    
10016c45  ShiftRows_Sw                                                              
10016c79  MixColumns_Sw                                                             
10016d05  FFMult_Sw                                                                 
10016d29  sspAesDecrypt_Sw                                                          
10016da1  InvAddRoundKey_Sw                                                         
10016dc9  InvRoundKey_Sw                                                            
10016e8d  InvSubBytes_Sw                                                            
10016ea1  InvShiftRows_Sw                                                           
10016ed5  InvMixColumns_Sw                                                          
10016f58  FFMult2                                                                   
10017058  FFMult3                                                                   
10017158  RCon                                                                      
10017164  Sbox                                                                      
10017264  InvSbox                                                                   
10017365  SSP_CCM_Auth_Sw                                                           
100174fd  SSP_CCM_Encrypt_Sw                                                        
100175ed  SSP_CTR_Encrypt_Sw                                                        
1001767d  SSP_CCM_Decrypt_Sw                                                        
10017771  SSP_CTR_Decrypt_Sw                                                        
10017839  SSP_CCM_InvAuth_Sw                                                        
10017895  SSP_CCM_Auth_Encrypt_Sw                                                   
100178f5  SSP_CCM_InvAuth_Decrypt_Sw                                                
10017959  ECC_allocWorkzone                                                         
10017961  ECC_setWin                                                                
10017969  ECDSA_sign                                                                
10017b01  ECDSA_verif                                                               
10017dbd  eccRom_genKeys                                                            
10017ded  eccRom_genSharedSecret                                                    
10017e39  SHA256_updateW                                                            
10017e75  SHA256_round                                                              
10017ef1  SHA256_nextState                                                          
10017f49  SHA256_saveBuffer                                                         
10017ffd  SHA256_init                                                               
10018019  SHA256_process                                                            
10018089  SHA256_final                                                              
10018129  SHA256_full                                                               
100182ad  RFHAL_InitRfHal                                                           
10018315  RFHAL_AllocRatChan                                                        
1001833d  RFHAL_FreeRatChan                                                         
10018369  RFHAL_MapRatChansToInt                                                    
10018391  RFHAL_RegisterRatChanCallback                                             
100183b9  RFHAL_InitDataQueue                                                       
100183c5  RFHAL_QueueRFDataEntries                                                  
10018415  RFHAL_AddTxDataEntry                                                      
10018485  RFHAL_FreeNextTxDataEntry                                                 
100184a9  RFHAL_AllocDataEntryQueue                                                 
100184c5  RFHAL_FreeDataEntryQueue                                                  
100184cd  RFHAL_GetNextDataEntry                                                    
100184d1  RFHAL_GetTempDataEntry                                                    
100184d5  RFHAL_NextDataEntryDone                                                   
100184f9  RFHAL_AllocDataEntry                                                      
10018549  RFHAL_FreeDataEntry                                                       
10018551  RFHAL_BuildRingBuffer                                                     
100185e1  RFHAL_BuildDataEntryRingBuffer                                            
10018669  RFHAL_BuildLinkedBuffer                                                   
10018755  MB_Init                                                                   
10018799  MB_EnableInts                                                             
100187f5  MB_DisableInts                                                            
10018825  MB_ClearInts                                                              
10018835  MB_EnableHWInts                                                           
10018865  MB_SendCommand                                                            
100188a5  MB_SendCommandSynch                                                       
10018935  MB_ReadMailboxStatus                                                      
1001893d  MB_RegisterIsrCback                                                       
10018945  MB_FwDebugDump                                                            
10018949  mbCmdAckIsr                                                               
1001895d  mbCpe0Isr                                                                 
10018985  mbCpe1Isr                                                                 
100189e5  mbHwIsr                                                                   
10018a19  AesCcm_authEncrypt_Sw                                                     
10018a35  AesCcm_decryptAuth_Sw                                                     
10018a99  Aes_encrypt_Sw                                                            
10018ac5  Aes_decrypt_Sw                                                            
10018b09  AesCcm_getNumBlocks_Sw                                                    
10018b0c  NIST_Curve_P256_p                                                         
10018b30  NIST_Curve_P256_r                                                         
10018b54  NIST_Curve_P256_a                                                         
10018b78  NIST_Curve_P256_b                                                         
10018b9c  NIST_Curve_P256_Gx                                                        
10018bc0  NIST_Curve_P256_Gy                                                        
10018ced  __exit                                                                    
10018d6c  Fill1                                                                     
10019ffc  A3_rw                                                                     
10019ffd  __checksum_end_CommonROM                                                  
10019ffe  A2_rw                                                                     
10019ffe  P1_ro_2                                                                   
10019ffe  __checksum_CommonROM                                                      
1001a001  ti_sysbios_knl_Semaphore_pend__E                                          
1001a0cd  ti_sysbios_knl_Mailbox_Instance_init__E                                   
1001a195  ti_sysbios_heaps_HeapMem_alloc__E                                         
1001a259  ti_sysbios_knl_Task_Instance_init__E                                      
1001a315  ti_sysbios_family_arm_m3_Hwi_postInit__I                                  
1001a3c5  ti_sysbios_family_arm_m3_Hwi_Instance_init__E                             
1001a465  ti_sysbios_family_arm_cc26xx_Timer_periodicStub__E                        
1001a4f9  ti_sysbios_knl_Task_Instance_finalize__E                                  
1001a58d  ti_sysbios_knl_Mailbox_post__E                                            
1001a611  ti_sysbios_knl_Task_postInit__I                                           
1001a695  ti_sysbios_family_arm_m3_Hwi_initNVIC__E                                  
1001a715  ti_sysbios_knl_Clock_startI__E                                            
1001a791  ti_sysbios_heaps_HeapMem_free__E                                          
1001a809  ti_sysbios_knl_Clock_walkQueueDynamic__E                                  
1001a881  ti_sysbios_knl_Clock_workFunc__E                                          
1001a8f9  ti_sysbios_knl_Mailbox_Instance_finalize__E                               
1001a969  ti_sysbios_knl_Mailbox_pend__E                                            
1001a9d9  ti_sysbios_knl_Task_sleep__E                                              
1001aa49  ti_sysbios_family_arm_m3_Hwi_dispatchC__I                                 
1001aab1  ti_sysbios_family_arm_m3_Hwi_Object__create__S                            
1001ab15  ti_sysbios_family_arm_m3_Hwi_create                                       
1001ab79  ti_sysbios_hal_Hwi_create                                                 
1001abdd  ti_sysbios_knl_Mailbox_create                                             
1001ac41  ti_sysbios_knl_Semaphore_post__E                                          
1001aca5  ti_sysbios_knl_Swi_Instance_init__E                                       
1001ad05  ti_sysbios_knl_Swi_create                                                 
1001ad61  ti_sysbios_knl_Swi_restoreHwi__E                                          
1001adbd  ti_sysbios_knl_Task_Module_startup__E                                     
1001ae19  ti_sysbios_knl_Task_create                                                
1001ae75  ti_sysbios_knl_Task_startCore__E                                          
1001aed1  ti_sysbios_family_arm_m3_Hwi_Instance_finalize__E                         
1001af29  ti_sysbios_family_arm_m3_Hwi_construct                                    
1001af81  ti_sysbios_knl_Mailbox_construct                                          
1001afd9  ti_sysbios_knl_Swi_run__I                                                 
1001b031  ti_sysbios_knl_Swi_schedule__I                                            
1001b085  ti_sysbios_knl_Swi_construct                                              
1001b0d5  ti_sysbios_knl_Swi_runLoop__I                                             
1001b125  ti_sysbios_knl_Task_construct                                             
1001b175  ti_sysbios_knl_Task_schedule__I                                           
1001b1c1  ti_sysbios_family_arm_m3_Hwi_Module_startup__E                            
1001b209  ti_sysbios_heaps_HeapMem_getStats__E                                      
1001b251  ti_sysbios_family_arm_m3_Hwi_disableInterrupt__E                          
1001b295  ti_sysbios_family_arm_m3_Hwi_enableInterrupt__E                           
1001b2d9  ti_sysbios_knl_Mailbox_Module_startup__E                                  
1001b31d  ti_sysbios_knl_Swi_post__E                                                
1001b361  ti_sysbios_knl_Task_allBlockedFunction__I                                 
1001b3a5  ti_sysbios_knl_Task_yield__E                                              
1001b3e9  ti_sysbios_knl_Clock_create                                               
1001b425  ti_sysbios_knl_Task_exit__E                                               
1001b45f  ti_sysbios_gates_GateHwi_Instance_init__E                                 
1001b461  ti_sysbios_family_arm_m3_Hwi_getStackInfo__E                              
1001b499  ti_sysbios_family_arm_m3_TaskSupport_start__E                             
1001b4d1  ti_sysbios_heaps_HeapMem_Instance_init__E                                 
1001b509  ti_sysbios_knl_Clock_Instance_init__E                                     
1001b541  ti_sysbios_heaps_HeapMem_init__I                                          
1001b575  ti_sysbios_knl_Clock_construct                                            
1001b5a9  ti_sysbios_knl_Semaphore_create                                           
1001b5dd  ti_sysbios_knl_Swi_restore__E                                             
1001b611  ti_sysbios_knl_Task_blockI__E                                             
1001b645  ti_sysbios_gates_GateMutex_Object__create__S                              
1001b675  ti_sysbios_gates_GateMutex_create                                         
1001b6a5  ti_sysbios_gates_GateMutex_enter__E                                       
1001b6d5  ti_sysbios_knl_Clock_getTicks__E                                          
1001b705  ti_sysbios_knl_Semaphore_construct                                        
1001b735  ti_sysbios_knl_Task_processVitalTaskFlag__I                               
1001b765  ti_sysbios_family_arm_cc26xx_Timer_postInit__I                            
1001b791  ti_sysbios_family_arm_cc26xx_Timer_startup__E                             
1001b791  ti_sysbios_knl_Clock_TimerProxy_startup__E                                
1001b7bd  ti_sysbios_family_arm_m3_Hwi_Object__get__S                               
1001b7e9  ti_sysbios_gates_GateMutex_construct                                      
1001b815  ti_sysbios_hal_Hwi_initStack                                              
1001b841  ti_sysbios_heaps_HeapMem_Object__create__S                                
1001b86d  ti_sysbios_heaps_HeapMem_Object__get__S                                   
1001b899  ti_sysbios_knl_Mailbox_Object__get__S                                     
1001b8c5  ti_sysbios_knl_Mailbox_postInit__I                                        
1001b8f1  ti_sysbios_knl_Queue_construct                                            
1001b91d  ti_sysbios_knl_Queue_create                                               
1001b949  ti_sysbios_knl_Semaphore_pendTimeout__I                                   
1001b975  ti_sysbios_knl_Swi_Object__get__S                                         
1001b9a1  ti_sysbios_knl_Task_unblockI__E                                           
1001b9cd  ti_sysbios_family_arm_cc26xx_TimestampProvider_get64__E                   
1001b9cd  xdc_runtime_Timestamp_SupportProxy_get64__E                               
1001b9cd  xdc_runtime_Timestamp_get64__E                                            
1001b9f5  ti_sysbios_hal_Hwi_Instance_init__E                                       
1001ba1d  ti_sysbios_knl_Clock_addI__E                                              
1001ba45  ti_sysbios_knl_Task_restore__E                                            
1001ba6d  ti_sysbios_family_arm_cc26xx_Timer_Module_startup__E                      
1001ba91  ti_sysbios_gates_GateHwi_Object__create__S                                
1001bab5  ti_sysbios_BIOS_RtsGateProxy_Object__delete__S                            
1001bab5  ti_sysbios_gates_GateMutex_Object__delete__S                              
1001bab5  ti_sysbios_heaps_HeapMem_Module_GateProxy_Object__delete__S               
1001bad9  ti_sysbios_knl_Clock_Object__delete__S                                    
1001bafd  ti_sysbios_knl_Semaphore_Instance_init__E                                 
1001bb21  ti_sysbios_knl_Semaphore_Object__delete__S                                
1001bb45  ti_sysbios_family_arm_cc26xx_Timer_Module__startupDone__S                 
1001bb65  ti_sysbios_family_arm_cc26xx_TimestampProvider_Module_startup__E          
1001bb85  ti_sysbios_family_arm_m3_Hwi_Module__startupDone__S                       
1001bba5  ti_sysbios_family_arm_m3_Hwi_Object__delete__S                            
1001bba5  ti_sysbios_hal_Hwi_HwiProxy_Object__delete__S                             
1001bbc5  ti_sysbios_family_arm_m3_Hwi_excHandler__I                                
1001bbe5  ti_sysbios_gates_GateHwi_Handle__label__S                                 
1001bbe5  xdc_runtime_System_Module_GateProxy_Handle__label__S                      
1001bc05  ti_sysbios_gates_GateHwi_Object__delete__S                                
1001bc05  xdc_runtime_System_Module_GateProxy_Object__delete__S                     
1001bc25  ti_sysbios_BIOS_RtsGateProxy_Handle__label__S                             
1001bc25  ti_sysbios_gates_GateMutex_Handle__label__S                               
1001bc25  ti_sysbios_heaps_HeapMem_Module_GateProxy_Handle__label__S                
1001bc45  ti_sysbios_gates_GateMutex_Object__destruct__S                            
1001bc65  ti_sysbios_hal_Hwi_Object__delete__S                                      
1001bc85  ti_sysbios_heaps_HeapMem_Handle__label__S                                 
1001bc85  xdc_runtime_Memory_HeapProxy_Handle__label__S                             
1001bca5  ti_sysbios_heaps_HeapMem_Object__delete__S                                
1001bca5  xdc_runtime_Memory_HeapProxy_Object__delete__S                            
1001bcc5  ti_sysbios_knl_Clock_Module_startup__E                                    
1001bce5  ti_sysbios_knl_Clock_Object__destruct__S                                  
1001bd05  ti_sysbios_knl_Idle_run__E                                                
1001bd25  ti_sysbios_knl_Mailbox_Object__delete__S                                  
1001bd45  ti_sysbios_knl_Queue_Object__delete__S                                    
1001bd65  ti_sysbios_knl_Queue_Object__get__S                                       
1001bd85  ti_sysbios_knl_Semaphore_Object__destruct__S                              
1001bda5  ti_sysbios_knl_Swi_Object__delete__S                                      
1001bdc5  ti_sysbios_knl_Task_Object__delete__S                                     
1001bde5  ti_sysbios_knl_Task_Object__get__S                                        
1001be05  ti_sysbios_knl_Task_enter__I                                              
1001be25  ti_sysbios_knl_Task_restoreHwi__E                                         
1001be45  ti_sysbios_hal_Hwi_HwiProxy_create                                        
1001be63  ti_sysbios_knl_Clock_logTick__E                                           
1001be65  ti_sysbios_family_arm_m3_Hwi_Object__destruct__S                          
1001be81  ti_sysbios_family_arm_m3_Hwi_setPriority__E                               
1001be9d  ti_sysbios_gates_GateMutex_Instance_init__E                               
1001beb9  ti_sysbios_knl_Clock_scheduleNextTick__E                                  
1001bed5  ti_sysbios_knl_Mailbox_Object__destruct__S                                
1001bef1  ti_sysbios_knl_Queue_Object__destruct__S                                  
1001bf0d  ti_sysbios_knl_Queue_get__E                                               
1001bf29  ti_sysbios_knl_Queue_put__E                                               
1001bf45  ti_sysbios_knl_Swi_Object__destruct__S                                    
1001bf61  ti_sysbios_knl_Task_Object__destruct__S                                   
1001bf7d  ti_sysbios_knl_Task_sleepTimeout__I                                       
1001bf97  ti_sysbios_knl_Swi_Instance_finalize__E                                   
1001bf99  ti_sysbios_gates_GateMutex_leave__E                                       
1001bfb1  ti_sysbios_knl_Task_unblock__E                                            
1001bfc9  ti_sysbios_knl_Clock_Instance_finalize__E                                 
1001bfdf  ti_sysbios_knl_Clock_start__E                                             
1001bff5  ti_sysbios_BIOS_getCpuFreq__E                                             
1001c009  ti_sysbios_family_arm_m3_Hwi_switchFromBootStack__E                       
1001c01d  ti_sysbios_hal_Hwi_Module_startup__E                                      
1001c031  ti_sysbios_BIOS_exit__E                                                   
1001c041  ti_sysbios_BIOS_setThreadType__E                                          
1001c051  ti_sysbios_BIOS_start__E                                                  
1001c061  ti_sysbios_family_arm_m3_Hwi_plug__E                                      
1001c071  ti_sysbios_gates_GateMutex_Instance_finalize__E                           
1001c081  ti_sysbios_hal_Hwi_HwiProxy_Object__create__S                             
1001c091  ti_sysbios_knl_Clock_TimerProxy_getCurrentTick__E                         
1001c0a1  ti_sysbios_knl_Clock_TimerProxy_getMaxTicks__E                            
1001c0b1  ti_sysbios_knl_Clock_TimerProxy_setNextTick__E                            
1001c0c1  ti_sysbios_knl_Semaphore_Instance_finalize__E                             
1001c0d1  ti_sysbios_knl_Swi_disable__E                                             
1001c0e1  ti_sysbios_knl_Swi_enabled__E                                             
1001c0f1  ti_sysbios_knl_Task_disable__E                                            
1001c101  ti_sysbios_heaps_HeapMem_restore__E                                       
1001c10f  ti_sysbios_knl_Queue_empty__E                                             
1001c11d  ti_sysbios_knl_Queue_remove__E                                            
1001c12b  ti_sysbios_family_arm_cc26xx_TimestampProvider_getFreq__E                 
1001c12b  xdc_runtime_Timestamp_SupportProxy_getFreq__E                             
1001c12b  xdc_runtime_Timestamp_getFreq__E                                          
1001c139  ti_sysbios_family_arm_m3_Hwi_Params__init__S                              
1001c139  ti_sysbios_hal_Hwi_HwiProxy_Params__init__S                               
1001c145  ti_sysbios_family_arm_m3_Hwi_disableFxn__E                                
1001c151  ti_sysbios_family_arm_m3_Hwi_enableFxn__E                                 
1001c15d  ti_sysbios_family_arm_m3_TaskSupport_getStackAlignment__E                 
1001c169  ti_sysbios_gates_GateHwi_enter__E                                         
1001c175  ti_sysbios_BIOS_RtsGateProxy_Params__init__S                              
1001c175  ti_sysbios_gates_GateMutex_Params__init__S                                
1001c175  ti_sysbios_heaps_HeapMem_Module_GateProxy_Params__init__S                 
1001c181  ti_sysbios_knl_Clock_Params__init__S                                      
1001c18d  ti_sysbios_knl_Clock_getTimerHandle__E                                    
1001c199  ti_sysbios_knl_Mailbox_Params__init__S                                    
1001c1a5  ti_sysbios_knl_Queue_dequeue__E                                           
1001c1b1  ti_sysbios_knl_Queue_enqueue__E                                           
1001c1bd  ti_sysbios_knl_Semaphore_Params__init__S                                  
1001c1c9  ti_sysbios_knl_Swi_Params__init__S                                        
1001c1d5  ti_sysbios_knl_Task_Params__init__S                                       
1001c1e1  ti_sysbios_knl_Task_self__E                                               
1001c1ed  ti_sysbios_hal_Hwi_Instance_finalize__E                                   
1001c1f7  ti_sysbios_family_arm_m3_Hwi_doSwiRestore__I                              
1001c1ff  ti_sysbios_family_arm_m3_Hwi_startup__E                                   
1001c207  ti_sysbios_knl_Idle_loop__E                                               
1001c20f  ti_sysbios_family_arm_m3_Hwi_doTaskRestore__I                             
1001c215  ti_sysbios_family_arm_m3_Hwi_restoreFxn__E                                
1001c21b  ti_sysbios_gates_GateHwi_leave__E                                         
1001c227  ti_sysbios_knl_Queue_Instance_init__E                                     
1001c22d  ti_sysbios_knl_Queue_elemClear__E                                         
1001c233  ti_sysbios_knl_Swi_Module_startup__E                                      
1001c239  ti_sysbios_knl_Swi_startup__E                                             
1001c23f  ti_sysbios_knl_Task_enable__E                                             
1001c245  ti_sysbios_BIOS_RtsGateProxy_enter__E                                     
1001c249  ti_sysbios_BIOS_RtsGateProxy_leave__E                                     
1001c24d  ti_sysbios_family_arm_cc26xx_Timer_getExpiredTicks__E                     
1001c251  ti_sysbios_family_arm_cc26xx_Timer_getPeriod__E                           
1001c255  ti_sysbios_family_arm_cc26xx_Timer_setPeriod__E                           
1001c259  ti_sysbios_family_arm_m3_Hwi_delete                                       
1001c25d  ti_sysbios_family_arm_m3_Hwi_destruct                                     
1001c261  ti_sysbios_family_arm_m3_TaskSupport_Module__startupDone__S               
1001c265  ti_sysbios_gates_GateHwi_query__E                                         
1001c265  xdc_runtime_System_Module_GateProxy_query__E                              
1001c269  ti_sysbios_gates_GateMutex_delete                                         
1001c26d  ti_sysbios_gates_GateMutex_destruct                                       
1001c271  ti_sysbios_BIOS_RtsGateProxy_query__E                                     
1001c271  ti_sysbios_gates_GateMutex_query__E                                       
1001c271  ti_sysbios_heaps_HeapMem_Module_GateProxy_query__E                        
1001c275  ti_sysbios_hal_Hwi_HwiProxy_Module__startupDone__S                        
1001c279  ti_sysbios_hal_Hwi_HwiProxy_delete                                        
1001c27d  ti_sysbios_hal_Hwi_HwiProxy_disableInterrupt__E                           
1001c27d  ti_sysbios_hal_Hwi_disableInterrupt__E                                    
1001c281  ti_sysbios_hal_Hwi_HwiProxy_enableInterrupt__E                            
1001c281  ti_sysbios_hal_Hwi_enableInterrupt__E                                     
1001c285  ti_sysbios_hal_Hwi_HwiProxy_getStackInfo__E                               
1001c285  ti_sysbios_hal_Hwi_getStackInfo__E                                        
1001c289  ti_sysbios_hal_Hwi_HwiProxy_startup__E                                    
1001c289  ti_sysbios_hal_Hwi_startup__E                                             
1001c28d  ti_sysbios_hal_Hwi_HwiProxy_switchFromBootStack__E                        
1001c291  ti_sysbios_hal_Hwi_delete                                                 
1001c295  ti_sysbios_hal_Hwi_switchFromBootStack__E                                 
1001c299  ti_sysbios_heaps_HeapMem_Module_GateProxy_enter__E                        
1001c29d  ti_sysbios_heaps_HeapMem_Module_GateProxy_leave__E                        
1001c2a1  ti_sysbios_heaps_HeapMem_isBlocking__E                                    
1001c2a5  ti_sysbios_knl_Clock_TimerProxy_Module__startupDone__S                    
1001c2a9  ti_sysbios_knl_Clock_TimerProxy_getExpiredTicks__E                        
1001c2ad  ti_sysbios_knl_Clock_TimerProxy_getPeriod__E                              
1001c2b1  ti_sysbios_knl_Clock_delete                                               
1001c2b5  ti_sysbios_knl_Clock_destruct                                             
1001c2b9  ti_sysbios_knl_Clock_removeI__E                                           
1001c2bd  ti_sysbios_knl_Clock_setTimeout__E                                        
1001c2c1  ti_sysbios_knl_Mailbox_delete                                             
1001c2c5  ti_sysbios_knl_Mailbox_destruct                                           
1001c2c9  ti_sysbios_knl_Queue_delete                                               
1001c2cd  ti_sysbios_knl_Queue_destruct                                             
1001c2d1  ti_sysbios_knl_Queue_head__E                                              
1001c2d5  ti_sysbios_knl_Queue_next__E                                              
1001c2d9  ti_sysbios_knl_Semaphore_delete                                           
1001c2dd  ti_sysbios_knl_Semaphore_destruct                                         
1001c2e1  ti_sysbios_knl_Swi_delete                                                 
1001c2e5  ti_sysbios_knl_Swi_destruct                                               
1001c2e9  ti_sysbios_knl_Swi_postInit__I                                            
1001c2ed  ti_sysbios_knl_Task_SupportProxy_Module__startupDone__S                   
1001c2f1  ti_sysbios_knl_Task_SupportProxy_getStackAlignment__E                     
1001c2f5  ti_sysbios_knl_Task_SupportProxy_start__E                                 
1001c2f9  ti_sysbios_knl_Task_SupportProxy_swap__E                                  
1001c2fd  ti_sysbios_knl_Task_delete                                                
1001c301  ti_sysbios_knl_Task_destruct                                              
1001c305  ti_sysbios_knl_Task_startup__E                                            
1001c309  xdc_runtime_Startup_startMods__I                                          
1001c401  xdc_runtime_Core_createObject__I                                          
1001c483  xdc_runtime_Error_policySpin__E                                           
1001c485  xdc_runtime_Memory_alloc__E                                               
1001c4f5  xdc_runtime_Core_deleteObject__I                                          
1001c555  xdc_runtime_Startup_exec__E                                               
1001c5a5  xdc_runtime_Assert_raise__I                                               
1001c5ed  xdc_runtime_Core_assignParams__I                                          
1001c635  xdc_runtime_Core_constructObject__I                                       
1001c67d  xdc_runtime_System_atexit__E                                              
1001c6b5  xdc_runtime_System_processAtExit__E                                       
1001c6e9  xdc_runtime_Core_assignLabel__I                                           
1001c719  xdc_runtime_Text_cordText__E                                              
1001c745  xdc_runtime_System_abort__E                                               
1001c765  xdc_runtime_Error_raiseX__E                                               
1001c781  xdc_runtime_Memory_valloc__E                                              
1001c79d  xdc_runtime_Core_destructObject__I                                        
1001c7b5  xdc_runtime_Error_check__E                                                
1001c7cd  xdc_runtime_System_exit__E                                                
1001c7e5  xdc_runtime_Text_ropeText__E                                              
1001c7fd  xdc_runtime_Memory_free__E                                                
1001c80d  xdc_runtime_SysCallback_abort__E                                          
1001c81d  xdc_runtime_SysCallback_exit__E                                           
1001c82d  xdc_runtime_Timestamp_SupportProxy_get32__E                               
1001c82d  xdc_runtime_Timestamp_get32__E                                            
1001c83d  xdc_runtime_Error_init__E                                                 
1001c849  xdc_runtime_Memory_calloc__E                                              
1001c855  xdc_runtime_Memory_getMaxDefaultTypeAlign__E                              
1001c875  xdc_runtime_Gate_leaveSystem__E                                           
1001c87b  xdc_runtime_System_Module_startup__E                                      
1001c881  xdc_runtime_Gate_enterSystem__E                                           
1001c885  xdc_runtime_Memory_HeapProxy_alloc__E                                     
1001c889  xdc_runtime_Memory_HeapProxy_free__E                                      
1001c88d  xdc_runtime_System_Module_GateProxy_enter__E                              
1001c891  xdc_runtime_System_Module_GateProxy_leave__E                              
1001c895  xdc_runtime_System_abortSpin__E                                           
1001c897  xdc_runtime_System_exitSpin__E                                            
1001c899  ti_sysbios_family_arm_m3_Hwi_dispatch__I                                  
1001c969  ti_sysbios_family_arm_m3_TaskSupport_buildTaskStack                       
1001c9b5  ti_sysbios_family_arm_m3_Hwi_initStacks__E                                
1001c9fd  ti_sysbios_family_arm_m3_Hwi_excHandlerAsm__I                             
1001ca1d  ti_sysbios_family_xxx_Hwi_switchAndRunFunc                                
1001ca3b  ti_sysbios_family_arm_m3_Hwi_pendSV__I                                    
1001ca53  ti_sysbios_family_arm_m3_Hwi_return                                       
1001ca55  ti_sysbios_family_arm_m3_TaskSupport_glue                                 
1001ca65  ti_sysbios_family_arm_m3_TaskSupport_swap__E                              
1001ca6d  ti_sysbios_knl_Task_swapReturn                                            
1001ca97  ti_sysbios_rom_cortexm_cc13xx_CC13xx_getRevision__E                       
20000000  ti_sysbios_family_arm_m3_Hwi_ramVectors                                   
20000100  ti_sysbios_knl_Task_Module__state__V                                      
20000144  ti_sysbios_family_arm_m3_Hwi_Module__state__V                             
20000178  ti_sysbios_knl_Clock_Module__state__V                                     
200001a4  ti_sysbios_BIOS_Module__state__V                                          
200001c8  ti_sysbios_knl_Swi_Module__state__V                                       
200001e4  ti_sysbios_family_arm_cc26xx_Timer_Module__state__V                       
200001ec  ti_sysbios_family_arm_cc26xx_TimestampProvider_Module__state__V           
200001f0  xdc_runtime_Startup_Module__state__V                                      
200001f8  xdc_runtime_System_Module__state__V                                       
20000200  xdc_runtime_Memory_Module__state__V                                       
20000208  gapProfileState                                                           
20000209  selfEntityMain                                                            
2000020c  sem                                                                       
200006d6  bmeRegistered                                                             
20000b38  dispHandle                                                                
20000bc4  sbpTask                                                                   
20000c14  sbpTaskStack                                                              
20000e98  linkDBNumConns                                                            
20000fac  gapRoleTask                                                               
20000ffc  gapRoleTaskStack                                                          
200011b6  adxlRegistered                                                            
2000146c  appAssertCback                                                            
20001880  PowerCC26XX_module                                                        
20001990  ICall_dispatcher                                                          
20001998  ICall_enterCriticalSection                                                
2000199c  ICall_leaveCriticalSection                                                
200019b4  HEAPMGR_SIZE                                                              
20001d74  ti_sysbios_family_arm_cc26xx_Timer_Module__root__V                        
20001d7c  ti_sysbios_family_arm_m3_Hwi_Module__root__V                              
20001d84  ti_sysbios_family_arm_m3_Hwi_Object__table__V                             
20001d9c  ti_sysbios_family_arm_m3_Hwi_Module_State_0_excActive__A                  
20001da0  ti_sysbios_family_arm_m3_Hwi_Module_State_0_excContext__A                 
20001da4  ti_sysbios_family_arm_m3_Hwi_Module_State_0_excStack__A                   
20001da8  ti_sysbios_gates_GateHwi_Module__root__V                                  
20001db0  ti_sysbios_gates_GateHwi_Object__table__V                                 
20001db4  ti_sysbios_gates_GateMutex_Module__root__V                                
20001dbc  ti_sysbios_hal_Hwi_Module__root__V                                        
20001dc4  ti_sysbios_heaps_HeapMem_Module__root__V                                  
20001dcc  ti_sysbios_heaps_HeapMem_Object__table__V                                 
20001de4  ti_sysbios_knl_Clock_Module__root__V                                      
20001dec  ti_sysbios_knl_Clock_Object__table__V                                     
20001e0c  ti_sysbios_knl_Event_Module__root__V                                      
20001e14  ti_sysbios_knl_Mailbox_Module__root__V                                    
20001e1c  ti_sysbios_knl_Queue_Module__root__V                                      
20001e24  ti_sysbios_knl_Semaphore_Module__root__V                                  
20001e2c  ti_sysbios_knl_Swi_Module__root__V                                        
20001e34  ti_sysbios_knl_Task_Module__root__V                                       
20001e3c  ti_sysbios_knl_Task_Module_State_0_idleTask__A                            
20001e40  __xdc__init__addr                                                         
20001e44  rfRegTbl                                                                  
20001e98  ti_sysbios_knl_Task_Object__table__V                                      
20001ee8  ti_sysbios_family_arm_cc26xx_Timer_Object__table__V                       
20001f30  ti_sysbios_gates_GateMutex_Object__table__V                               
20001f68  radCtrlHandle                                                             
20001f6c  radCtrlState                                                              
20001f78  radCtrlCfg                                                                
20001f84  rFSwitchPowerNotifyObj                                                    
20001f98  ti_sysbios_knl_Swi_Module_State_0_readyQ__A                               
20001fc8  ti_sysbios_knl_Swi_Object__table__V                                       
20001ff8  ti_sysbios_knl_Task_Module_State_0_readyQ__A                              
20002028  user0Cfg                                                                  
20002058  lastAppOpcodeSent                                                         
2000205c  pfnBMAlloc                                                                
20002060  pfnBMFree                                                                 
2000206c  _lock                                                                     
20002070  _unlock                                                                   
20002074  __TI_cleanup_ptr                                                          
20002078  __TI_dtors_ptr                                                            
2000207c  xdc_runtime_Registry_Module__state__V                                     
20002084  main_func_sp                                                              
20002090  ti_sysbios_heaps_HeapMem_Instance_State_0_buf__A                          
20002710  ti_sysbios_knl_Task_Instance_State_0_stack__A                             
20002910  i2cCC26xxObjects                                                          
20002ad0  PIN_NumPins                                                               
20002b64  PIN_HandleTable                                                           
20002be0  ti_sysbios_family_arm_m3_Hwi_dispatchTable                                
20002cc8  gBME                                                                      
20002ccc  i2c_devices                                                               
20002cd0  trngCC26XXObjects                                                         
20002cd5  driverlib_release_0_46593                                                 
20002cd6  heapStart                                                                 
20003f48  __stack                                                                   
20003f48  heapEnd                                                                   
20004348  __STACK_END                                                               
20004348  __STACK_TOP                                                               
20004f2c  A4_rw                                                                     
20004f2c  COMMON_RAM_BASE_ADDR                                                      
20004f40  P2_rw                                                                     
20004f40  P2_s0                                                                     
20004f40  eccRom_windowSize                                                         
20004f44  eccRom_workzone                                                           
20004f48  eccRom_param_p                                                            
20004f4c  eccRom_param_r                                                            
20004f50  eccRom_param_a                                                            
20004f54  inScalar                                                                  
20004f58  inPointX                                                                  
20004f5c  inPointY                                                                  
20004f60  outPointX                                                                 
20004f64  outPointY                                                                 
20004f68  SCAL                                                                      
20004f6c  EXPX                                                                      
20004f70  EXPY                                                                      
20004f74  EXPZ                                                                      
20004f78  EXPW                                                                      
20004f7c  ACCX                                                                      
20004f80  ACCY                                                                      
20004f84  ACCZ                                                                      
20004f88  TMP1                                                                      
20004f8c  TMP2                                                                      
20004f90  TMP3                                                                      
20004f94  TMP4                                                                      
20004f98  TMP5                                                                      
20004f9c  TMP6                                                                      
20004fa0  eccRom_param_Gx                                                           
20004fa4  eccRom_param_Gy                                                           
20004fa8  eccRom_param_b                                                            
20004fac  P2_zi                                                                     
20004fac  ratChanInfo                                                               
20004fcc  fwInfoCmd                                                                 
20004fd8  MSBMOD                                                                    
20004fdc  aux64                                                                     
20004fe4  MOD                                                                       
20004fe8  LEN                                                                       
20004ffc  pSspAesEncrypt_Sw                                                         
e000e000  ti_sysbios_family_arm_m3_Hwi_nvic                                         
ffffffff  __binit__                                                                 
ffffffff  __c_args__                                                                
ffffffff  binit                                                                     
UNDEFED   HwiP_restore                                                              
UNDEFED   SHT$$INIT_ARRAY$$Base                                                     
UNDEFED   SHT$$INIT_ARRAY$$Limit                                                    
UNDEFED   ti_sysbios_BIOS_RtsGateProxy_Handle__label__S__mangled__                  
UNDEFED   ti_sysbios_BIOS_RtsGateProxy_Object__delete__S__mangled__                 
UNDEFED   ti_sysbios_BIOS_RtsGateProxy_Params__init__S__mangled__                   
UNDEFED   ti_sysbios_BIOS_RtsGateProxy_query__E__mangled__                          
UNDEFED   ti_sysbios_hal_Hwi_HwiProxy_Module__startupDone__S__mangled__             
UNDEFED   ti_sysbios_hal_Hwi_HwiProxy_Object__delete__S__mangled__                  
UNDEFED   ti_sysbios_hal_Hwi_HwiProxy_Params__init__S__mangled__                    
UNDEFED   ti_sysbios_hal_Hwi_HwiProxy_disableInterrupt__E__mangled__                
UNDEFED   ti_sysbios_hal_Hwi_HwiProxy_enableInterrupt__E__mangled__                 
UNDEFED   ti_sysbios_hal_Hwi_HwiProxy_getStackInfo__E__mangled__                    
UNDEFED   ti_sysbios_hal_Hwi_HwiProxy_startup__E__mangled__                         
UNDEFED   ti_sysbios_hal_Hwi_HwiProxy_switchFromBootStack__E__mangled__             
UNDEFED   ti_sysbios_hal_Hwi_disableInterrupt__E                                    
UNDEFED   ti_sysbios_hal_Hwi_enableInterrupt__E                                     
UNDEFED   ti_sysbios_hal_Hwi_getStackInfo__E                                        
UNDEFED   ti_sysbios_hal_Hwi_startup__E                                             
UNDEFED   ti_sysbios_hal_Hwi_switchFromBootStack__E                                 
UNDEFED   ti_sysbios_heaps_HeapMem_Module_GateProxy_Handle__label__S__mangled__     
UNDEFED   ti_sysbios_heaps_HeapMem_Module_GateProxy_Object__delete__S__mangled__    
UNDEFED   ti_sysbios_heaps_HeapMem_Module_GateProxy_Params__init__S__mangled__      
UNDEFED   ti_sysbios_heaps_HeapMem_Module_GateProxy_query__E__mangled__             
UNDEFED   ti_sysbios_knl_Clock_TimerProxy_Module__startupDone__S__mangled__         
UNDEFED   ti_sysbios_knl_Clock_TimerProxy_startup__E__mangled__                     
UNDEFED   ti_sysbios_knl_Task_SupportProxy_Module__startupDone__S__mangled__        
UNDEFED   ti_sysbios_knl_Task_SupportProxy_getStackAlignment__E__mangled__          
UNDEFED   ti_sysbios_knl_Task_SupportProxy_start__E__mangled__                      
UNDEFED   ti_sysbios_knl_Task_SupportProxy_swap__E__mangled__                       
UNDEFED   xdc_runtime_Main_Module_GateProxy_Handle__label__S                        
UNDEFED   xdc_runtime_Main_Module_GateProxy_Object__delete__S                       
UNDEFED   xdc_runtime_Main_Module_GateProxy_query__E                                
UNDEFED   xdc_runtime_Memory_HeapProxy_Handle__label__S__mangled__                  
UNDEFED   xdc_runtime_Memory_HeapProxy_Object__delete__S__mangled__                 
UNDEFED   xdc_runtime_System_Module_GateProxy_Handle__label__S__mangled__           
UNDEFED   xdc_runtime_System_Module_GateProxy_Object__delete__S__mangled__          
UNDEFED   xdc_runtime_System_Module_GateProxy_query__E__mangled__                   
UNDEFED   xdc_runtime_System_SupportProxy_abort__E                                  
UNDEFED   xdc_runtime_System_SupportProxy_exit__E                                   
UNDEFED   xdc_runtime_Timestamp_SupportProxy_get64__E__mangled__                    
UNDEFED   xdc_runtime_Timestamp_SupportProxy_getFreq__E__mangled__                  
UNDEFED   xdc_runtime_Timestamp_get32__E                                            
UNDEFED   xdc_runtime_Timestamp_get64__E                                            
UNDEFED   xdc_runtime_Timestamp_getFreq__E                                          

[1150 symbols]
