******************************************************************************
                  TI ARM Linker PC v5.2.6                      
******************************************************************************
>> Linked Fri Mar 18 15:41:21 2022

OUTPUT FILE NAME:   <simple_peripheral_cc1350lp_stack.out>
ENTRY POINT SYMBOL: "startup_entry"  address: 0000e001


MEMORY CONFIGURATION

         name            origin    length      used     unused   attr    fill
----------------------  --------  ---------  --------  --------  ----  --------
  FLASH                 00000000   0001f000  00010030  0000efd0  R  X
  SRAM                  20000000   000048e7  00000594  00004353  RW X


SEGMENT ALLOCATION MAP

run origin  load origin   length   init length attrs members
----------  ----------- ---------- ----------- ----- -------
0000e000    0000e000    0000f030   0000f030    r-x
  0000e000    0000e000    0000004c   0000004c    r-x EntrySection
  0000e04c    0000e04c    0000e3f8   0000e3f8    r-x .text
  0001c444    0001c444    000006f8   000006f8    r-- .const
  0001cb3c    0001cb3c    0000006e   0000006e    r-- .rodata
  0001cbb0    0001cbb0    00000480   00000480    r-- .cinit
0001e000    0001e000    00001000   00001000    r--
  0001e000    0001e000    00001000   00001000    r-- .TI.bound:NV_FLASH
20004348    20004348    00000598   00000000    rw-
  20004348    20004348    00000144   00000000    rw- .bss
  20004490    20004490    00000450   00000000    rw- .data


SECTION ALLOCATION MAP

 output                                  attributes/
section   page    origin      length       input sections
--------  ----  ----------  ----------   ----------------
EntrySection 
*          0    0000e000    0000004c     
                  0000e000    0000002c     icall_startup.obj (EntrySection)
                  0000e02c    00000008     rtsv7M3_T_le_eabi.lib : autoinit.obj (.tramp.__TI_auto_init.1)
                  0000e034    00000008     <whole-program> (.tramp.CommonROM_Init.1)
                  0000e03c    00000008     <whole-program> (.tramp.ROM_Init.1)
                  0000e044    00000008     <whole-program> (.tramp.stack_main.1)

.text      0    0000e04c    0000e3f8     
                  0000e04c    000001ec     host_pxxx.a : att_server.o (.text)
                  0000e238    000005cc                 : att_util.o (.text)
                  0000e804    00000348                 : gap_configmgr.o (.text)
                  0000eb4c    000000b0                 : gap_devmgr.o (.text)
                  0000ebfc    000009b8                 : gap_linkmgr.o (.text)
                  0000f5b4    00000624                 : gap_peridevmgr.o (.text)
                  0000fbd8    00000110                 : gap_perilinkmgr.o (.text)
                  0000fce8    000002ec                 : gap_task.o (.text)
                  0000ffd4    0000032c                 : gapgattserver.o (.text)
                  00010300    00000b16                 : gatt_server.o (.text)
                  00010e16    00000002     --HOLE-- [fill = 0]
                  00010e18    000002f6                 : gatt_task.o (.text)
                  0001110e    00000002     --HOLE-- [fill = 0]
                  00011110    0000013e                 : gatt_uuid.o (.text)
                  0001124e    00000002     --HOLE-- [fill = 0]
                  00011250    00000fcc                 : gattservapp.o (.text)
                  0001221c    0000017e                 : l2cap_if.o (.text)
                  0001239a    00000002     --HOLE-- [fill = 0]
                  0001239c    000002b0                 : l2cap_task.o (.text)
                  0001264c    0000068c                 : l2cap_util.o (.text)
                  00012cd8    000002ec                 : linkdb.o (.text)
                  00012fc4    000006a0                 : sm_mgr.o (.text)
                  00013664    000007e4                 : sm_pairing.o (.text)
                  00013e48    00000570                 : sm_rsppairing.o (.text)
                  000143b8    000000e8                 : sm_task.o (.text)
                  000144a0    0000039c                 : smp.o (.text)
                  0001483c    000004f4     cc1350_ctrl_pxxx.a : ble_patch.o (.text)
                  00014d30    000000a8                        : hci_data_patch.o (.text)
                  00014dd8    0000052c                        : hci_event_patch.o (.text)
                  00015304    00000308                        : hci_patch.o (.text)
                  0001560c    00000428                        : ll_adv_end_causes_patch.o (.text)
                  00015a34    00000c08                        : ll_common_patch.o (.text)
                  0001663c    0000014c                        : ll_enc_patch.o (.text)
                  00016788    000016f0                        : ll_patch.o (.text)
                  00017e78    00000010                        : ll_rat_patch.o (.text)
                  00017e88    000001a8                        : ll_scheduler_patch.o (.text)
                  00018030    000006fe                        : ll_slave_end_causes_patch.o (.text)
                  0001872e    00000002     --HOLE-- [fill = 0]
                  00018730    00000046                        : ll_sleep.o (.text)
                  00018776    000000ae                        : ll_wl_patch.o (.text)
                  00018824    000003c8                        : ll_isr.o (.text)
                  00018bec    000000a8     cc26xx_hci_tl_none.a : hci_tl.o (.text)
                  00018c94    0000006c     rtsv7M3_T_le_eabi.lib : autoinit.obj (.text)
                  00018d00    00000018                           : ll_mul_t2.obj (.text)
                  00018d18    0000009c                           : memcpy_t2.obj (.text)
                  00018db4    0000007a                           : memset_t2.obj (.text)
                  00018e2e    000001f4                           : ull_div_t2.obj (.text)
                  00019022    0000000c     driverlib.lib : cpu.obj (.text:NOROM_CPUcpsie)
                  0001902e    0000000c                   : cpu.obj (.text:NOROM_CPUcpsid)
                  0001903a    00000002     --HOLE-- [fill = 0]
                  0001903c    0000001c                   : flash.obj (.text:NOROM_FlashSectorErase)
                  00019058    0000001c                   : flash.obj (.text:NOROM_FlashProgram)
                  00019074    00000070                   : interrupt.obj (.text:NOROM_IntEnable)
                  000190e4    0000005c                   : interrupt.obj (.text:NOROM_IntDisable)
                  00019140    00000034                   : trng.obj (.text:NOROM_TRNGConfigure)
                  00019174    0000000e                   : vims.obj (.text:NOROM_VIMSModeGet)
                  00019182    00000002     --HOLE-- [fill = 0]
                  00019184    000002c8     osal_timers.obj (.text)
                  0001944c    00000094     rom_jt.obj (.text)
                  000194e0    00000068     hal_trng_wrapper.obj (.text)
                  00019548    00000034     hal_assert.obj (.text)
                  0001957c    00000014     onboard.obj (.text)
                  00019590    000000d0     osal_bufmgr.obj (.text)
                  00019660    00000750     osal.obj (.text)
                  00019db0    00000e9c     gapbondmgr.obj (.text)
                  0001ac4c    00000058     hal_flash_wrapper.obj (.text)
                  0001aca4    000001a0     osal_cbtimer.obj (.text)
                  0001ae44    000004b4     osal_snv_wrapper.obj (.text)
                  0001b2f8    00000022     rtsv7M3_T_le_eabi.lib : memcmp.obj (.text)
                  0001b31a    00000002     --HOLE-- [fill = 0]
                  0001b31c    00000928     ble_dispatch.obj (.text)
                  0001bc44    00000040     gap.obj (.text)
                  0001bc84    000000a0     osal_pwrmgr.obj (.text)
                  0001bd24    00000068     osal_clock.obj (.text)
                  0001bd8c    00000048     osal_memory_icall.obj (.text)
                  0001bdd4    0000006c     ble_user_config.obj (.text)
                  0001be40    0000011c     osal_icall_ble.obj (.text)
                  0001bf5c    00000014     rtsv7M3_T_le_eabi.lib : strlen.obj (.text)
                  0001bf70    0000004c                           : cpy_tbl.obj (.text)
                  0001bfbc    0000000c                           : copy_zero_init.obj (.text:decompress:ZI)
                  0001bfc8    0000006a                           : copy_decompress_rle.obj (.text)
                  0001c032    00000006                           : copy_decompress_rle.obj (.text:decompress:rle24)
                  0001c038    0000000e                           : copy_decompress_none.obj (.text:decompress:none)
                  0001c046    00000002     --HOLE-- [fill = 0]
                  0001c048    00000064     gattservapp_util.obj (.text)
                  0001c0ac    00000008     ble_rom_patch.symbols (.tramp.HCI_ReadBDADDRCmd.1)
                  0001c0b4    00000008     ble_rom_patch.symbols (.tramp.HCI_LE_SetRandomAddressCmd.1)
                  0001c0bc    00000008     ble_rom_patch.symbols (.tramp.LL_ReadBDADDR.1)
                  0001c0c4    00000008     ble_rom_patch.symbols (.tramp.HCI_DisconnectCmd.1)
                  0001c0cc    00000008     ble_rom_patch.symbols (.tramp.HCI_LE_SetAdvDataCmd.1)
                  0001c0d4    00000008     ble_rom_patch.symbols (.tramp.HCI_LE_SetScanRspDataCmd.1)
                  0001c0dc    00000008     ble_rom_patch.symbols (.tramp.HCI_LE_SetAdvEnableCmd.1)
                  0001c0e4    00000008     ble_rom_patch.symbols (.tramp.HCI_LE_SetAdvParamCmd.1)
                  0001c0ec    00000008     ble_rom_patch.symbols (.tramp.HCI_SetControllerToHostFlowCtrlCmd.1)
                  0001c0f4    00000008     ble_rom_patch.symbols (.tramp.HCI_HostBufferSizeCmd.1)
                  0001c0fc    00000008     ble_rom_patch.symbols (.tramp.HCI_HostNumCompletedPktCmd.1)
                  0001c104    00000008     ble_rom_patch.symbols (.tramp.HCI_SendDataPkt.1)
                  0001c10c    00000008     ble_rom_patch.symbols (.tramp.HCI_bm_alloc.1)
                  0001c114    00000008     ble_rom_patch.symbols (.tramp.LL_Encrypt.1)
                  0001c11c    00000008     ble_rom_patch.symbols (.tramp.HCI_LE_LtkReqReplyCmd.1)
                  0001c124    00000008     ble_rom_patch.symbols (.tramp.HCI_LE_LtkReqNegReplyCmd.1)
                  0001c12c    00000008     ble_rom_patch.symbols (.tramp.llMemCopySrc.1)
                  0001c134    00000008     ble_rom_patch.symbols (.tramp.LL_ENC_ReverseBytes.1)
                  0001c13c    00000008     ble_rom_patch.symbols (.tramp.LL_ENC_GenDeviceSKD.1)
                  0001c144    00000008     ble_rom_patch.symbols (.tramp.LL_ENC_GenDeviceIV.1)
                  0001c14c    00000008     ble_rom_patch.symbols (.tramp.llEnqueueCtrlPkt.1)
                  0001c154    00000008     ble_rom_patch.symbols (.tramp.llSetupUnknownRsp.1)
                  0001c15c    00000008     ble_rom_patch.symbols (.tramp.LL_RX_bm_alloc.1)
                  0001c164    00000008     ble_rom_patch.symbols (.tramp.llPatchCM0.1)
                  0001c16c    00000008     ble_rom_patch.symbols (.tramp.RFHAL_AllocRatChan.1)
                  0001c174    00000008     ble_rom_patch.symbols (.tramp.RFHAL_RegisterRatChanCallback.1)
                  0001c17c    00000008     ble_rom_patch.symbols (.tramp.LL_CtrlToHostFlowControl.1)
                  0001c184    00000008     ble_rom_patch.symbols (.tramp.HCI_SendCommandCompleteEvent.1)
                  0001c18c    00000008     ble_rom_patch.symbols (.tramp.HCI_CommandCompleteEvent.1)
                  0001c194    00000008     ble_rom_patch.symbols (.tramp.HCI_CommandStatusEvent.1)
                  0001c19c    00000008     ble_rom_patch.symbols (.tramp.LL_EXT_ResetSystem.1)
                  0001c1a4    00000008     ble_rom_patch.symbols (.tramp.LL_ReadLocalVersionInfo.1)
                  0001c1ac    00000008     ble_rom_patch.symbols (.tramp.llFreeTask.1)
                  0001c1b4    00000008     ble_rom_patch.symbols (.tramp.LL_ENC_GeneratePseudoRandNum.1)
                  0001c1bc    00000008     ble_rom_patch.symbols (.tramp.llScheduler.1)
                  0001c1c4    00000008     ble_rom_patch.symbols (.tramp.llConvertLstoToEvent.1)
                  0001c1cc    00000008     ble_rom_patch.symbols (.tramp.llConvertCtrlProcTimeoutToEvent.1)
                  0001c1d4    00000008     ble_rom_patch.symbols (.tramp.llCalcScaFactor.1)
                  0001c1dc    00000008     ble_rom_patch.symbols (.tramp.llConnTerminate.1)
                  0001c1e4    00000008     ble_rom_patch.symbols (.tramp.RFHAL_InitDataQueue.1)
                  0001c1ec    00000008     ble_rom_patch.symbols (.tramp.llEventDelta.1)
                  0001c1f4    00000008     ble_rom_patch.symbols (.tramp.LL_TX_bm_alloc.1)
                  0001c1fc    00000008     ble_rom_patch.symbols (.tramp.RFHAL_FreeNextTxDataEntry.1)
                  0001c204    00000008     ble_rom_patch.symbols (.tramp.RFHAL_GetNextDataEntry.1)
                  0001c20c    00000008     ble_rom_patch.symbols (.tramp.RFHAL_GetTempDataEntry.1)
                  0001c214    00000008     ble_rom_patch.symbols (.tramp.llReleaseConnId.1)
                  0001c21c    00000008     ble_rom_patch.symbols (.tramp.llTimeCompare.1)
                  0001c224    00000008     ble_rom_patch.symbols (.tramp.HCI_HardwareErrorEvent.1)
                  0001c22c    00000008     ble_rom_patch.symbols (.tramp.llGetCurrentTask.1)
                  0001c234    00000008     ble_rom_patch.symbols (.tramp.llTimeDelta.1)
                  0001c23c    00000008     ble_rom_patch.symbols (.tramp.llSetupRejectInd.1)
                  0001c244    00000008     ble_rom_patch.symbols (.tramp.LL_ENC_Init.1)
                  0001c24c    00000008     ble_rom_patch.symbols (.tramp.LL_ENC_LoadKey.1)
                  0001c254    00000008     ble_rom_patch.symbols (.tramp.LL_ENC_GenerateNonce.1)
                  0001c25c    00000008     ble_rom_patch.symbols (.tramp.LL_ENC_EncryptMsg.1)
                  0001c264    00000008     ble_rom_patch.symbols (.tramp.LL_ENC_DecryptMsg.1)
                  0001c26c    00000008     ble_rom_patch.symbols (.tramp.LL_ENC_GenerateTrueRandNum.1)
                  0001c274    00000008     ble_rom_patch.symbols (.tramp.WL_Init.1)
                  0001c27c    00000008     ble_rom_patch.symbols (.tramp.LL_ClearWhiteList.1)
                  0001c284    00000008     ble_rom_patch.symbols (.tramp.llReleaseAllConnId.1)
                  0001c28c    00000008     ble_rom_patch.symbols (.tramp.LL_ConnActive.1)
                  0001c294    00000008     ble_rom_patch.symbols (.tramp.HCI_DataBufferOverflowEvent.1)
                  0001c29c    00000008     ble_rom_patch.symbols (.tramp.LL_DirectTestEndDoneCback.1)
                  0001c2a4    00000008     ble_rom_patch.symbols (.tramp.llGetActiveTasks.1)
                  0001c2ac    00000008     ble_rom_patch.symbols (.tramp.llSetupAdv.1)
                  0001c2b4    00000008     ble_rom_patch.symbols (.tramp.llGetNumTasks.1)
                  0001c2bc    00000008     ble_rom_patch.symbols (.tramp.llCheckForLstoDuringSL.1)
                  0001c2c4    00000008     ble_rom_patch.symbols (.tramp.llEventInRange.1)
                  0001c2cc    00000008     ble_rom_patch.symbols (.tramp.LL_EncLtkReqCback.1)
                  0001c2d4    00000008     ble_rom_patch.symbols (.tramp.llSetupEncRsp.1)
                  0001c2dc    00000008     ble_rom_patch.symbols (.tramp.LL_ENC_AES128_Encrypt.1)
                  0001c2e4    00000008     ble_rom_patch.symbols (.tramp.LL_EncKeyRefreshCback.1)
                  0001c2ec    00000008     ble_rom_patch.symbols (.tramp.LL_EncChangeCback.1)
                  0001c2f4    00000008     ble_rom_patch.symbols (.tramp.llSetupStartEncRsp.1)
                  0001c2fc    00000008     ble_rom_patch.symbols (.tramp.llSetupPauseEncRsp.1)
                  0001c304    00000008     ble_rom_patch.symbols (.tramp.LL_ReadRemoteVersionInfoCback.1)
                  0001c30c    00000008     ble_rom_patch.symbols (.tramp.llSetupVersionIndReq.1)
                  0001c314    00000008     ble_rom_patch.symbols (.tramp.llMoveTempTxDataEntries.1)
                  0001c31c    00000008     ble_rom_patch.symbols (.tramp.WL_ClearEntry.1)
                  0001c324    00000008     ble_rom_patch.symbols (.tramp.RFHAL_NextDataEntryDone.1)
                  0001c32c    00000008     ble_rom_patch.symbols (.tramp.LL_PseudoRand.1)
                  0001c334    00000008     ble_rom_patch.symbols (.tramp.HCI_LE_ClearWhiteListCmd.1)
                  0001c33c    00000008     ble_rom_patch.symbols (.tramp.HCI_LE_AddWhiteListCmd.1)
                  0001c344    00000008     ble_rom_patch.symbols (.tramp.HCI_EXT_NumComplPktsLimitCmd.1)
                  0001c34c    00000008     ble_rom_patch.symbols (.tramp.HCI_EXT_BuildRevisionCmd.1)
                  0001c354    00000008     ble_rom_patch.symbols (.tramp.HCI_EXT_SetSlaveLatencyOverrideCmd.1)
                  0001c35c    00000008     ble_rom_patch.symbols (.tramp.HCI_EXT_AdvEventNoticeCmd.1)
                  0001c364    00000008     ble_rom_patch.symbols (.tramp.HCI_EXT_PERbyChanCmd.1)
                  0001c36c    00000008     ble_rom_patch.symbols (.tramp.HCI_EXT_PacketErrorRateCmd.1)
                  0001c374    00000008     ble_rom_patch.symbols (.tramp.HCI_EXT_DisconnectImmedCmd.1)
                  0001c37c    00000008     ble_rom_patch.symbols (.tramp.HCI_EXT_SetMaxDtmTxPowerCmd.1)
                  0001c384    00000008     ble_rom_patch.symbols (.tramp.HCI_EXT_EnablePTMCmd.1)
                  0001c38c    00000008     ble_rom_patch.symbols (.tramp.HCI_EXT_SetSCACmd.1)
                  0001c394    00000008     ble_rom_patch.symbols (.tramp.HCI_EXT_SetBDADDRCmd.1)
                  0001c39c    00000008     ble_rom_patch.symbols (.tramp.HCI_EXT_EndModemTestCmd.1)
                  0001c3a4    00000008     ble_rom_patch.symbols (.tramp.HCI_EXT_ModemTestRxCmd.1)
                  0001c3ac    00000008     ble_rom_patch.symbols (.tramp.HCI_EXT_ModemHopTestTxCmd.1)
                  0001c3b4    00000008     ble_rom_patch.symbols (.tramp.HCI_EXT_ModemTestTxCmd.1)
                  0001c3bc    00000008     ble_rom_patch.symbols (.tramp.HCI_EXT_SetFastTxResponseTimeCmd.1)
                  0001c3c4    00000008     ble_rom_patch.symbols (.tramp.HCI_EXT_SetLocalSupportedFeaturesCmd.1)
                  0001c3cc    00000008     ble_rom_patch.symbols (.tramp.HCI_EXT_DecryptCmd.1)
                  0001c3d4    00000008     ble_rom_patch.symbols (.tramp.HCI_EXT_OnePktPerEvtCmd.1)
                  0001c3dc    00000008     ble_rom_patch.symbols (.tramp.HCI_EXT_SetTxPowerCmd.1)
                  0001c3e4    00000008     ble_rom_patch.symbols (.tramp.HCI_LE_TestEndCmd.1)
                  0001c3ec    00000008     ble_rom_patch.symbols (.tramp.HCI_LE_ReadSupportedStatesCmd.1)
                  0001c3f4    00000008     ble_rom_patch.symbols (.tramp.HCI_LE_EncryptCmd.1)
                  0001c3fc    00000008     ble_rom_patch.symbols (.tramp.HCI_LE_ReadChannelMapCmd.1)
                  0001c404    00000008     ble_rom_patch.symbols (.tramp.HCI_LE_RemoveWhiteListCmd.1)
                  0001c40c    00000008     ble_rom_patch.symbols (.tramp.HCI_LE_ReadWhiteListSizeCmd.1)
                  0001c414    00000008     ble_rom_patch.symbols (.tramp.HCI_LE_ReadAdvChanTxPowerCmd.1)
                  0001c41c    00000008     ble_rom_patch.symbols (.tramp.HCI_LE_ReadLocalSupportedFeaturesCmd.1)
                  0001c424    00000008     ble_rom_patch.symbols (.tramp.HCI_ReadLocalSupportedFeaturesCmd.1)
                  0001c42c    00000008     ble_rom_patch.symbols (.tramp.HCI_ReadTransmitPowerLevelCmd.1)
                  0001c434    00000008     ble_rom_patch.symbols (.tramp.HCI_SetEventMaskCmd.1)
                  0001c43c    00000008     ble_rom_patch.symbols (.tramp.HCI_ReadRemoteVersionInfoCmd.1)

.const     0    0001c444    000006f8     
                  0001c444    00000028     osal_icall_ble.obj (.const:tasksArr)
                  0001c46c    000006d0     rom_jt.obj (.const)

.constdata 
*          0    0001cb3c    00000000     UNINITIALIZED

.rodata    0    0001cb3c    0000006e     
                  0001cb3c    00000008     host_pxxx.a : gapgattserver.o (.rodata)
                  0001cb44    00000008                 : gattservapp.o (.rodata)
                  0001cb4c    0000005c     cc1350_ctrl_pxxx.a : ll_config.o (.rodata)
                  0001cba8    00000002                        : ll_patch.o (.rodata)

.cinit     0    0001cbb0    00000480     
                  0001cbb0    0000000c     (__TI_handler_table)
                  0001cbbc    00000010     (__TI_cinit_table)
                  0001cbcc    00000004     --HOLE-- [fill = 0]
                  0001cbd0    00000458     (.cinit..data.load) [load image]
                  0001d028    00000008     (.cinit..bss.load) [load image, compression = zero_init]

.pinit     0    0001d030    00000000     UNINITIALIZED

.init_array 
*          0    0001d030    00000000     UNINITIALIZED

.emb_text 
*          0    0001d030    00000000     UNINITIALIZED

.TI.bound:NV_FLASH 
*          0    0001e000    00001000     
                  0001e000    00001000     osal_snv_wrapper.obj (.TI.bound:NV_FLASH)

.bss       0    20004348    00000144     UNINITIALIZED
                  20004348    00000004     host_pxxx.a : att_server.o (.bss)
                  2000434c    00000004                 : gap_devmgr.o (.bss)
                  20004350    00000004                 : gap_devmgr.o (.bss)
                  20004354    00000001                 : gap_devmgr.o (.bss)
                  20004355    00000002                 : gatt_task.o (.bss)
                  20004357    00000001                 : l2cap_if.o (.bss)
                  20004358    00000004                 : gap_linkmgr.o (.bss)
                  2000435c    00000004                 : gap_task.o (.bss)
                  20004360    00000004                 : gapgattserver.o (.bss)
                  20004364    00000004                 : gatt_server.o (.bss)
                  20004368    00000008                 : gatt_task.o (.bss)
                  20004370    00000024                 : gattservapp.o (.bss)
                  20004394    00000004                 : gattservapp.o (.bss)
                  20004398    00000030                 : l2cap_task.o (.bss)
                  200043c8    00000001                 : l2cap_util.o (.bss)
                  200043c9    00000001                 : sm_task.o (.bss)
                  200043ca    00000002     cc1350_ctrl_pxxx.a : ll_slave_end_causes_patch.o (.bss)
                  200043cc    00000038     host_pxxx.a : linkdb.o (.bss)
                  20004404    0000000c                 : sm_pairing.o (.bss)
                  20004410    00000010     cc1350_ctrl_pxxx.a : hci_event_patch.o (.bss)
                  20004420    00000008                        : ll_patch.o (.bss)
                  20004428    00000001     cc26xx_hci_tl_none.a : hci_tl.o (.bss)
                  20004429    00000001                          : hci_tl.o (.bss)
                  2000442a    00000001                          : hci_tl.o (.bss)
                  2000442b    00000001                          : hci_tl.o (.bss)
                  2000442c    00000001                          : hci_tl.o (.bss)
                  2000442d    00000001                          : hci_tl.o (.bss)
                  2000442e    00000002     --HOLE--
                  20004430    0000003c     ble_dispatch.obj (.bss)
                  2000446c    0000000c     osal_timers.obj (.bss)
                  20004478    0000000c     icall_startup.obj (.bss)
                  20004484    00000004     (.common:lastTrngVal$3)
                  20004488    00000004     (.common:tasksEvents)

.TI.noinit 
*          0    20004348    00000000     UNINITIALIZED

.data      0    20004490    00000450     UNINITIALIZED
                  20004490    0000002c     host_pxxx.a : gap_configmgr.o (.data)
                  200044bc    00000050                 : gap_configmgr.o (.data)
                  2000450c    0000001c                 : gap_linkmgr.o (.data)
                  20004528    0000001c                 : gap_peridevmgr.o (.data)
                  20004544    00000004                 : gap_perilinkmgr.o (.data)
                  20004548    0000000c                 : gap_task.o (.data)
                  20004554    00000001                 : gapgattserver.o (.data)
                  20004555    00000001                 : gapgattserver.o (.data)
                  20004556    00000001                 : gapgattserver.o (.data)
                  20004557    00000001                 : gatt_server.o (.data)
                  20004558    00000024                 : gapgattserver.o (.data)
                  2000457c    00000070                 : gapgattserver.o (.data)
                  200045ec    00000008                 : gatt_server.o (.data)
                  200045f4    00000001                 : gatt_task.o (.data)
                  200045f5    00000001                 : gattservapp.o (.data)
                  200045f6    00000002                 : l2cap_task.o (.data)
                  200045f8    00000010                 : gattservapp.o (.data)
                  20004608    00000008                 : l2cap_task.o (.data)
                  20004610    00000010                 : sm_rsppairing.o (.data)
                  20004620    0000000c     cc1350_ctrl_pxxx.a : ll_common_patch.o (.data)
                  2000462c    00000020                        : ll_config.o (.data)
                  2000464c    00000004     osal_bufmgr.obj (.data)
                  20004650    000000f8     cc1350_ctrl_pxxx.a : ll_patch.o (.data)
                  20004748    00000008     hal_assert.obj (.data)
                  20004750    00000028     osal.obj (.data)
                  20004778    0000007c     osal_cbtimer.obj (.data)
                  200047f4    00000008     osal_clock.obj (.data)
                  200047fc    00000004     osal_pwrmgr.obj (.data)
                  20004800    00000004     osal_snv_wrapper.obj (.data)
                  20004804    000000dc     gapbondmgr.obj (.data)

.TI.persistent 
*          0    20004490    00000000     UNINITIALIZED


LINKER GENERATED COPY TABLES

__TI_cinit_table @ 0001cbbc records: 2, size/record: 8, table size: 16
	.data: load addr=0001cbd0, load size=00000458 bytes, run addr=20004490, run size=00000450 bytes, compression=copy
	.bss: load addr=0001d028, load size=00000008 bytes, run addr=20004348, run size=00000144 bytes, compression=zero_init


LINKER GENERATED HANDLER TABLE

__TI_handler_table @ 0001cbb0 records: 3, size/record: 4, table size: 12
	index: 0, handler: __TI_decompress_rle24
	index: 1, handler: __TI_decompress_none
	index: 2, handler: __TI_zero_init


FAR CALL TRAMPOLINES

callee name               trampoline name
   callee addr  tramp addr   call addr  call info
--------------  -----------  ---------  ----------------
__TI_auto_init            $Tramp$TT$S$$__TI_auto_init
   00018c95     0000e02c     0000e006   icall_startup.obj (EntrySection)
CommonROM_Init            $Tramp$TT$S$$CommonROM_Init
   00019483     0000e034     0000e018   icall_startup.obj (EntrySection)
ROM_Init                  $Tramp$TT$S$$ROM_Init
   000194a3     0000e03c     0000e01c   icall_startup.obj (EntrySection)
stack_main                $Tramp$TT$S$$stack_main
   0001bf0d     0000e044     0000e022   icall_startup.obj (EntrySection)
HCI_ReadBDADDRCmd         $Tramp$TT$L$PI$$HCI_ReadBDADDRCmd
   10009765     0001c0ac     0000e846   host_pxxx.a : gap_configmgr.o (.text)
                             0001bafc   ble_dispatch.obj (.text)
HCI_LE_SetRandomAddressCmd  $Tramp$TT$L$PI$$HCI_LE_SetRandomAddressCmd
   10009849     0001c0b4     0000ea16   host_pxxx.a : gap_configmgr.o (.text)
LL_ReadBDADDR             $Tramp$TT$L$PI$$LL_ReadBDADDR
   100056c9     0001c0bc     0000eae4   host_pxxx.a : gap_configmgr.o (.text)
HCI_DisconnectCmd         $Tramp$TT$L$PI$$HCI_DisconnectCmd
   10009525     0001c0c4     0000ec66   host_pxxx.a : gap_linkmgr.o (.text)
                             0000f212               : gap_linkmgr.o (.text)
HCI_LE_SetAdvDataCmd      $Tramp$TT$L$PI$$HCI_LE_SetAdvDataCmd
   100098a1     0001c0cc     0000f69c   host_pxxx.a : gap_peridevmgr.o (.text)
                             0000fb34               : gap_peridevmgr.o (.text)
HCI_LE_SetScanRspDataCmd  $Tramp$TT$L$PI$$HCI_LE_SetScanRspDataCmd
   100098bd     0001c0d4     0000f6a6   host_pxxx.a : gap_peridevmgr.o (.text)
                             0000fb3e               : gap_peridevmgr.o (.text)
HCI_LE_SetAdvEnableCmd    $Tramp$TT$L$PI$$HCI_LE_SetAdvEnableCmd
   100098d9     0001c0dc     0000f6f6   host_pxxx.a : gap_peridevmgr.o (.text)
                             0000f8c4               : gap_peridevmgr.o (.text)
HCI_LE_SetAdvParamCmd     $Tramp$TT$L$PI$$HCI_LE_SetAdvParamCmd
   1000986d     0001c0e4     0000fa0c   host_pxxx.a : gap_peridevmgr.o (.text)
HCI_SetControllerToHostFlowCtrlCmd  $Tramp$TT$L$PI$$HCI_SetControllerToHostFlowCtrlCmd
   100095f5     0001c0ec     0001232c   host_pxxx.a : l2cap_if.o (.text)
                             0001234c               : l2cap_if.o (.text)
HCI_HostBufferSizeCmd     $Tramp$TT$L$PI$$HCI_HostBufferSizeCmd
   10009631     0001c0f4     00012342   host_pxxx.a : l2cap_if.o (.text)
HCI_HostNumCompletedPktCmd  $Tramp$TT$L$PI$$HCI_HostNumCompletedPktCmd
   1000965d     0001c0fc     00012360   host_pxxx.a : l2cap_if.o (.text)
HCI_SendDataPkt           $Tramp$TT$L$PI$$HCI_SendDataPkt
   100094e9     0001c104     0001283c   host_pxxx.a : l2cap_util.o (.text)
HCI_bm_alloc              $Tramp$TT$L$PI$$HCI_bm_alloc
   100094a1     0001c10c     00012cbe   host_pxxx.a : l2cap_util.o (.text)
                             00015f4c   cc1350_ctrl_pxxx.a : ll_common_patch.o (.text)
LL_Encrypt                $Tramp$TT$L$PI$$LL_Encrypt
   100057d5     0001c114     000132e8   host_pxxx.a : sm_mgr.o (.text)
HCI_LE_LtkReqReplyCmd     $Tramp$TT$L$PI$$HCI_LE_LtkReqReplyCmd
   10009bc5     0001c11c     00013f00   host_pxxx.a : sm_rsppairing.o (.text)
HCI_LE_LtkReqNegReplyCmd  $Tramp$TT$L$PI$$HCI_LE_LtkReqNegReplyCmd
   10009be1     0001c124     00013f1a   host_pxxx.a : sm_rsppairing.o (.text)
llMemCopySrc              $Tramp$TT$L$PI$$llMemCopySrc
   100089d9     0001c12c     000148a4   cc1350_ctrl_pxxx.a : ble_patch.o (.text)
                             000148b0                      : ble_patch.o (.text)
                             000148bc                      : ble_patch.o (.text)
                             000148c8                      : ble_patch.o (.text)
                             000148ec                      : ble_patch.o (.text)
                             0001492c                      : ble_patch.o (.text)
                             00014938                      : ble_patch.o (.text)
                             0001498c                      : ble_patch.o (.text)
                             00014998                      : ble_patch.o (.text)
                             000149a6                      : ble_patch.o (.text)
                             000149be                      : ble_patch.o (.text)
                             00014a6c                      : ble_patch.o (.text)
                             00014a7a                      : ble_patch.o (.text)
LL_ENC_ReverseBytes       $Tramp$TT$L$PI$$LL_ENC_ReverseBytes
   1000b4ed     0001c134     000149b0   cc1350_ctrl_pxxx.a : ble_patch.o (.text)
                             000149c6                      : ble_patch.o (.text)
LL_ENC_GenDeviceSKD       $Tramp$TT$L$PI$$LL_ENC_GenDeviceSKD
   1000b541     0001c13c     000149ce   cc1350_ctrl_pxxx.a : ble_patch.o (.text)
LL_ENC_GenDeviceIV        $Tramp$TT$L$PI$$LL_ENC_GenDeviceIV
   1000b555     0001c144     000149d6   cc1350_ctrl_pxxx.a : ble_patch.o (.text)
llEnqueueCtrlPkt          $Tramp$TT$L$PI$$llEnqueueCtrlPkt
   100080bd     0001c14c     00014a0c   cc1350_ctrl_pxxx.a : ble_patch.o (.text)
                             00014a8e                      : ble_patch.o (.text)
                             00017400                      : ll_patch.o (.text)
llSetupUnknownRsp         $Tramp$TT$L$PI$$llSetupUnknownRsp
   10008069     0001c154     00014aa2   cc1350_ctrl_pxxx.a : ble_patch.o (.text)
                             000184cc                      : ll_slave_end_causes_patch.o (.text)
LL_RX_bm_alloc            $Tramp$TT$L$PI$$LL_RX_bm_alloc
   1000556d     0001c15c     00014b30   cc1350_ctrl_pxxx.a : ble_patch.o (.text)
                             00014b72                      : ble_patch.o (.text)
                             00016040                      : ll_common_patch.o (.text)
llPatchCM0                $Tramp$TT$L$PI$$llPatchCM0
   1000adb1     0001c164     00014bea   cc1350_ctrl_pxxx.a : ble_patch.o (.text)
RFHAL_AllocRatChan        $Tramp$TT$L$PI$$RFHAL_AllocRatChan
   10018315     0001c16c     00014bee   cc1350_ctrl_pxxx.a : ble_patch.o (.text)
RFHAL_RegisterRatChanCallback  $Tramp$TT$L$PI$$RFHAL_RegisterRatChanCallback
   10018391     0001c174     00014bfa   cc1350_ctrl_pxxx.a : ble_patch.o (.text)
LL_CtrlToHostFlowControl  $Tramp$TT$L$PI$$LL_CtrlToHostFlowControl
   100058d5     0001c17c     00014d52   cc1350_ctrl_pxxx.a : hci_data_patch.o (.text)
HCI_SendCommandCompleteEvent  $Tramp$TT$L$PI$$HCI_SendCommandCompleteEvent
   10008c81     0001c184     000152d8   cc1350_ctrl_pxxx.a : hci_event_patch.o (.text)
HCI_CommandCompleteEvent  $Tramp$TT$L$PI$$HCI_CommandCompleteEvent
   10008add     0001c18c     0001536e   cc1350_ctrl_pxxx.a : hci_patch.o (.text)
                             0001542a                      : hci_patch.o (.text)
                             0001545c                      : hci_patch.o (.text)
                             00015592                      : hci_patch.o (.text)
                             000155c0                      : hci_patch.o (.text)
HCI_CommandStatusEvent    $Tramp$TT$L$PI$$HCI_CommandStatusEvent
   10008ba1     0001c194     00015446   cc1350_ctrl_pxxx.a : hci_patch.o (.text)
                             000154b8                      : hci_patch.o (.text)
LL_EXT_ResetSystem        $Tramp$TT$L$PI$$LL_EXT_ResetSystem
   100070d5     0001c19c     000154d0   cc1350_ctrl_pxxx.a : hci_patch.o (.text)
LL_ReadLocalVersionInfo   $Tramp$TT$L$PI$$LL_ReadLocalVersionInfo
   1000589d     0001c1a4     00015550   cc1350_ctrl_pxxx.a : hci_patch.o (.text)
llFreeTask                $Tramp$TT$L$PI$$llFreeTask
   1000abed     0001c1ac     0001562c   cc1350_ctrl_pxxx.a : ll_adv_end_causes_patch.o (.text)
                             00015748                      : ll_adv_end_causes_patch.o (.text)
                             00015dca                      : ll_common_patch.o (.text)
                             00017c78                      : ll_patch.o (.text)
LL_ENC_GeneratePseudoRandNum  $Tramp$TT$L$PI$$LL_ENC_GeneratePseudoRandNum
   1000b50d     0001c1b4     00015640   cc1350_ctrl_pxxx.a : ll_adv_end_causes_patch.o (.text)
                             000156d8                      : ll_adv_end_causes_patch.o (.text)
llScheduler               $Tramp$TT$L$PI$$llScheduler
   1000a335     0001c1bc     0001566a   cc1350_ctrl_pxxx.a : ll_adv_end_causes_patch.o (.text)
                             00015712                      : ll_adv_end_causes_patch.o (.text)
                             000159ee                      : ll_adv_end_causes_patch.o (.text)
                             00017c40                      : ll_patch.o (.text)
                             00017c84                      : ll_patch.o (.text)
                             000181fa                      : ll_slave_end_causes_patch.o (.text)
llConvertLstoToEvent      $Tramp$TT$L$PI$$llConvertLstoToEvent
   10008721     0001c1c4     0001585c   cc1350_ctrl_pxxx.a : ll_adv_end_causes_patch.o (.text)
                             000182f0                      : ll_slave_end_causes_patch.o (.text)
llConvertCtrlProcTimeoutToEvent  $Tramp$TT$L$PI$$llConvertCtrlProcTimeoutToEvent
   10008741     0001c1cc     00015866   cc1350_ctrl_pxxx.a : ll_adv_end_causes_patch.o (.text)
                             0001834a                      : ll_slave_end_causes_patch.o (.text)
llCalcScaFactor           $Tramp$TT$L$PI$$llCalcScaFactor
   1000d94d     0001c1d4     00015880   cc1350_ctrl_pxxx.a : ll_adv_end_causes_patch.o (.text)
llConnTerminate           $Tramp$TT$L$PI$$llConnTerminate
   10008631     0001c1dc     0001592e   cc1350_ctrl_pxxx.a : ll_adv_end_causes_patch.o (.text)
                             00017dee                      : ll_patch.o (.text)
                             0001818e                      : ll_slave_end_causes_patch.o (.text)
                             00018474                      : ll_slave_end_causes_patch.o (.text)
                             0001852c                      : ll_slave_end_causes_patch.o (.text)
RFHAL_InitDataQueue       $Tramp$TT$L$PI$$RFHAL_InitDataQueue
   100183b9     0001c1e4     00015942   cc1350_ctrl_pxxx.a : ll_adv_end_causes_patch.o (.text)
                             00015d76                      : ll_common_patch.o (.text)
                             00015da6                      : ll_common_patch.o (.text)
llEventDelta              $Tramp$TT$L$PI$$llEventDelta
   10008719     0001c1ec     00015aa0   cc1350_ctrl_pxxx.a : ll_common_patch.o (.text)
                             0001631c                      : ll_common_patch.o (.text)
                             000182be                      : ll_slave_end_causes_patch.o (.text)
                             0001830a                      : ll_slave_end_causes_patch.o (.text)
LL_TX_bm_alloc            $Tramp$TT$L$PI$$LL_TX_bm_alloc
   10005549     0001c1f4     00015c12   cc1350_ctrl_pxxx.a : ll_common_patch.o (.text)
                             00015c74                      : ll_common_patch.o (.text)
                             0001637a                      : ll_common_patch.o (.text)
RFHAL_FreeNextTxDataEntry  $Tramp$TT$L$PI$$RFHAL_FreeNextTxDataEntry
   10018485     0001c1fc     00015cd8   cc1350_ctrl_pxxx.a : ll_common_patch.o (.text)
                             00015d44                      : ll_common_patch.o (.text)
RFHAL_GetNextDataEntry    $Tramp$TT$L$PI$$RFHAL_GetNextDataEntry
   100184cd     0001c204     00015cde   cc1350_ctrl_pxxx.a : ll_common_patch.o (.text)
                             00015d4a                      : ll_common_patch.o (.text)
                             00015d8a                      : ll_common_patch.o (.text)
                             00018a86                      : ll_isr.o (.text)
RFHAL_GetTempDataEntry    $Tramp$TT$L$PI$$RFHAL_GetTempDataEntry
   100184d1     0001c20c     00015d54   cc1350_ctrl_pxxx.a : ll_common_patch.o (.text)
                             00016444                      : ll_common_patch.o (.text)
llReleaseConnId           $Tramp$TT$L$PI$$llReleaseConnId
   10008429     0001c214     00015dc4   cc1350_ctrl_pxxx.a : ll_common_patch.o (.text)
llTimeCompare             $Tramp$TT$L$PI$$llTimeCompare
   1000d8c9     0001c21c     00015e76   cc1350_ctrl_pxxx.a : ll_common_patch.o (.text)
                             000160f4                      : ll_common_patch.o (.text)
HCI_HardwareErrorEvent    $Tramp$TT$L$PI$$HCI_HardwareErrorEvent
   10008bf5     0001c224     00015f70   cc1350_ctrl_pxxx.a : ll_common_patch.o (.text)
                             0001607c                      : ll_common_patch.o (.text)
                             000161d8                      : ll_common_patch.o (.text)
                             00016554                      : ll_common_patch.o (.text)
                             000165ce                      : ll_common_patch.o (.text)
                             0001714e                      : ll_patch.o (.text)
                             00017508                      : ll_patch.o (.text)
llGetCurrentTask          $Tramp$TT$L$PI$$llGetCurrentTask
   1000ac3d     0001c22c     000160fa   cc1350_ctrl_pxxx.a : ll_common_patch.o (.text)
                             00017088                      : ll_patch.o (.text)
                             00017c5e                      : ll_patch.o (.text)
                             00017dc8                      : ll_patch.o (.text)
                             00017dd2                      : ll_patch.o (.text)
llTimeDelta               $Tramp$TT$L$PI$$llTimeDelta
   1000d8f5     0001c234     0001610c   cc1350_ctrl_pxxx.a : ll_common_patch.o (.text)
llSetupRejectInd          $Tramp$TT$L$PI$$llSetupRejectInd
   10007df5     0001c23c     0001635c   cc1350_ctrl_pxxx.a : ll_common_patch.o (.text)
                             00018672                      : ll_slave_end_causes_patch.o (.text)
LL_ENC_Init               $Tramp$TT$L$PI$$LL_ENC_Init
   1000b4c9     0001c244     0001667e   cc1350_ctrl_pxxx.a : ll_enc_patch.o (.text)
                             000166ec                      : ll_enc_patch.o (.text)
                             000171e2                      : ll_patch.o (.text)
                             00018744                      : ll_sleep.o (.text)
LL_ENC_LoadKey            $Tramp$TT$L$PI$$LL_ENC_LoadKey
   1000b58d     0001c24c     00016686   cc1350_ctrl_pxxx.a : ll_enc_patch.o (.text)
                             000166f4                      : ll_enc_patch.o (.text)
LL_ENC_GenerateNonce      $Tramp$TT$L$PI$$LL_ENC_GenerateNonce
   1000b569     0001c254     000166a8   cc1350_ctrl_pxxx.a : ll_enc_patch.o (.text)
                             00016718                      : ll_enc_patch.o (.text)
LL_ENC_EncryptMsg         $Tramp$TT$L$PI$$LL_ENC_EncryptMsg
   1000b721     0001c25c     000166b4   cc1350_ctrl_pxxx.a : ll_enc_patch.o (.text)
LL_ENC_DecryptMsg         $Tramp$TT$L$PI$$LL_ENC_DecryptMsg
   1000b851     0001c264     00016728   cc1350_ctrl_pxxx.a : ll_enc_patch.o (.text)
LL_ENC_GenerateTrueRandNum  $Tramp$TT$L$PI$$LL_ENC_GenerateTrueRandNum
   1000b51d     0001c26c     0001705e   cc1350_ctrl_pxxx.a : ll_patch.o (.text)
WL_Init                   $Tramp$TT$L$PI$$WL_Init
   1000d189     0001c274     000171de   cc1350_ctrl_pxxx.a : ll_patch.o (.text)
LL_ClearWhiteList         $Tramp$TT$L$PI$$LL_ClearWhiteList
   10005719     0001c27c     000171e6   cc1350_ctrl_pxxx.a : ll_patch.o (.text)
llReleaseAllConnId        $Tramp$TT$L$PI$$llReleaseAllConnId
   10008461     0001c284     0001724a   cc1350_ctrl_pxxx.a : ll_patch.o (.text)
LL_ConnActive             $Tramp$TT$L$PI$$LL_ConnActive
   1000678d     0001c28c     00017308   cc1350_ctrl_pxxx.a : ll_patch.o (.text)
                             00017358                      : ll_patch.o (.text)
                             00017396                      : ll_patch.o (.text)
                             000173d2                      : ll_patch.o (.text)
                             00017512                      : ll_patch.o (.text)
                             00017cee                      : ll_patch.o (.text)
                             00017d30                      : ll_patch.o (.text)
                             00017dc0                      : ll_patch.o (.text)
HCI_DataBufferOverflowEvent  $Tramp$TT$L$PI$$HCI_DataBufferOverflowEvent
   10008a2d     0001c294     00017532   cc1350_ctrl_pxxx.a : ll_patch.o (.text)
LL_DirectTestEndDoneCback  $Tramp$TT$L$PI$$LL_DirectTestEndDoneCback
   10009471     0001c29c     00017a2a   cc1350_ctrl_pxxx.a : ll_patch.o (.text)
                             00017a60                      : ll_patch.o (.text)
llGetActiveTasks          $Tramp$TT$L$PI$$llGetActiveTasks
   1000aca9     0001c2a4     00017bd8   cc1350_ctrl_pxxx.a : ll_patch.o (.text)
llSetupAdv                $Tramp$TT$L$PI$$llSetupAdv
   100073e5     0001c2ac     00017c04   cc1350_ctrl_pxxx.a : ll_patch.o (.text)
llGetNumTasks             $Tramp$TT$L$PI$$llGetNumTasks
   1000ace1     0001c2b4     00017c56   cc1350_ctrl_pxxx.a : ll_patch.o (.text)
llCheckForLstoDuringSL    $Tramp$TT$L$PI$$llCheckForLstoDuringSL
   1000c1b5     0001c2bc     0001825e   cc1350_ctrl_pxxx.a : ll_slave_end_causes_patch.o (.text)
llEventInRange            $Tramp$TT$L$PI$$llEventInRange
   100086f1     0001c2c4     00018280   cc1350_ctrl_pxxx.a : ll_slave_end_causes_patch.o (.text)
                             000182a0                      : ll_slave_end_causes_patch.o (.text)
LL_EncLtkReqCback         $Tramp$TT$L$PI$$LL_EncLtkReqCback
   1000925d     0001c2cc     00018564   cc1350_ctrl_pxxx.a : ll_slave_end_causes_patch.o (.text)
llSetupEncRsp             $Tramp$TT$L$PI$$llSetupEncRsp
   10007b95     0001c2d4     0001856c   cc1350_ctrl_pxxx.a : ll_slave_end_causes_patch.o (.text)
LL_ENC_AES128_Encrypt     $Tramp$TT$L$PI$$LL_ENC_AES128_Encrypt
   1000b5f5     0001c2dc     000185c8   cc1350_ctrl_pxxx.a : ll_slave_end_causes_patch.o (.text)
LL_EncKeyRefreshCback     $Tramp$TT$L$PI$$LL_EncKeyRefreshCback
   100093dd     0001c2e4     000185fc   cc1350_ctrl_pxxx.a : ll_slave_end_causes_patch.o (.text)
LL_EncChangeCback         $Tramp$TT$L$PI$$LL_EncChangeCback
   1000933d     0001c2ec     00018606   cc1350_ctrl_pxxx.a : ll_slave_end_causes_patch.o (.text)
llSetupStartEncRsp        $Tramp$TT$L$PI$$llSetupStartEncRsp
   10007ca9     0001c2f4     00018618   cc1350_ctrl_pxxx.a : ll_slave_end_causes_patch.o (.text)
llSetupPauseEncRsp        $Tramp$TT$L$PI$$llSetupPauseEncRsp
   10007d55     0001c2fc     00018632   cc1350_ctrl_pxxx.a : ll_slave_end_causes_patch.o (.text)
LL_ReadRemoteVersionInfoCback  $Tramp$TT$L$PI$$LL_ReadRemoteVersionInfoCback
   100091e1     0001c304     000186aa   cc1350_ctrl_pxxx.a : ll_slave_end_causes_patch.o (.text)
                             000186be                      : ll_slave_end_causes_patch.o (.text)
llSetupVersionIndReq      $Tramp$TT$L$PI$$llSetupVersionIndReq
   10007f29     0001c30c     000186ca   cc1350_ctrl_pxxx.a : ll_slave_end_causes_patch.o (.text)
llMoveTempTxDataEntries   $Tramp$TT$L$PI$$llMoveTempTxDataEntries
   1000afa1     0001c314     0001872a   cc1350_ctrl_pxxx.a : ll_slave_end_causes_patch.o (.text)
WL_ClearEntry             $Tramp$TT$L$PI$$WL_ClearEntry
   1000d1f5     0001c31c     00018786   cc1350_ctrl_pxxx.a : ll_wl_patch.o (.text)
RFHAL_NextDataEntryDone   $Tramp$TT$L$PI$$RFHAL_NextDataEntryDone
   100184d5     0001c324     00018b66   cc1350_ctrl_pxxx.a : ll_isr.o (.text)
LL_PseudoRand             $Tramp$TT$L$PI$$LL_PseudoRand
   10005801     0001c32c     00019586   onboard.obj (.text)
HCI_LE_ClearWhiteListCmd  $Tramp$TT$L$PI$$HCI_LE_ClearWhiteListCmd
   100099f9     0001c334     0001a0e0   gapbondmgr.obj (.text)
                             0001bae0   ble_dispatch.obj (.text)
HCI_LE_AddWhiteListCmd    $Tramp$TT$L$PI$$HCI_LE_AddWhiteListCmd
   10009a15     0001c33c     0001a0fa   gapbondmgr.obj (.text)
                             0001badc   ble_dispatch.obj (.text)
HCI_EXT_NumComplPktsLimitCmd  $Tramp$TT$L$PI$$HCI_EXT_NumComplPktsLimitCmd
   1000a1b5     0001c344     0001ba0e   ble_dispatch.obj (.text)
HCI_EXT_BuildRevisionCmd  $Tramp$TT$L$PI$$HCI_EXT_BuildRevisionCmd
   1000a109     0001c34c     0001ba22   ble_dispatch.obj (.text)
HCI_EXT_SetSlaveLatencyOverrideCmd  $Tramp$TT$L$PI$$HCI_EXT_SetSlaveLatencyOverrideCmd
   10009e6d     0001c354     0001ba28   ble_dispatch.obj (.text)
HCI_EXT_AdvEventNoticeCmd  $Tramp$TT$L$PI$$HCI_EXT_AdvEventNoticeCmd
   1000a0f1     0001c35c     0001ba3c   ble_dispatch.obj (.text)
HCI_EXT_PERbyChanCmd      $Tramp$TT$L$PI$$HCI_EXT_PERbyChanCmd
   1000a075     0001c364     0001ba44   ble_dispatch.obj (.text)
HCI_EXT_PacketErrorRateCmd  $Tramp$TT$L$PI$$HCI_EXT_PacketErrorRateCmd
   1000a031     0001c36c     0001ba4c   ble_dispatch.obj (.text)
HCI_EXT_DisconnectImmedCmd  $Tramp$TT$L$PI$$HCI_EXT_DisconnectImmedCmd
   1000a011     0001c374     0001ba52   ble_dispatch.obj (.text)
HCI_EXT_SetMaxDtmTxPowerCmd  $Tramp$TT$L$PI$$HCI_EXT_SetMaxDtmTxPowerCmd
   10009fd1     0001c37c     0001ba58   ble_dispatch.obj (.text)
HCI_EXT_EnablePTMCmd      $Tramp$TT$L$PI$$HCI_EXT_EnablePTMCmd
   10009f69     0001c384     0001ba5c   ble_dispatch.obj (.text)
HCI_EXT_SetSCACmd         $Tramp$TT$L$PI$$HCI_EXT_SetSCACmd
   10009f49     0001c38c     0001ba62   ble_dispatch.obj (.text)
HCI_EXT_SetBDADDRCmd      $Tramp$TT$L$PI$$HCI_EXT_SetBDADDRCmd
   10009f0d     0001c394     0001ba68   ble_dispatch.obj (.text)
HCI_EXT_EndModemTestCmd   $Tramp$TT$L$PI$$HCI_EXT_EndModemTestCmd
   10009eed     0001c39c     0001ba6c   ble_dispatch.obj (.text)
HCI_EXT_ModemTestRxCmd    $Tramp$TT$L$PI$$HCI_EXT_ModemTestRxCmd
   10009ecd     0001c3a4     0001ba72   ble_dispatch.obj (.text)
HCI_EXT_ModemHopTestTxCmd  $Tramp$TT$L$PI$$HCI_EXT_ModemHopTestTxCmd
   10009ead     0001c3ac     0001ba76   ble_dispatch.obj (.text)
HCI_EXT_ModemTestTxCmd    $Tramp$TT$L$PI$$HCI_EXT_ModemTestTxCmd
   10009e8d     0001c3b4     0001ba7e   ble_dispatch.obj (.text)
HCI_EXT_SetFastTxResponseTimeCmd  $Tramp$TT$L$PI$$HCI_EXT_SetFastTxResponseTimeCmd
   10009e4d     0001c3bc     0001ba84   ble_dispatch.obj (.text)
HCI_EXT_SetLocalSupportedFeaturesCmd  $Tramp$TT$L$PI$$HCI_EXT_SetLocalSupportedFeaturesCmd
   10009e2d     0001c3c4     0001ba8a   ble_dispatch.obj (.text)
HCI_EXT_DecryptCmd        $Tramp$TT$L$PI$$HCI_EXT_DecryptCmd
   10009dd1     0001c3cc     0001ba92   ble_dispatch.obj (.text)
HCI_EXT_OnePktPerEvtCmd   $Tramp$TT$L$PI$$HCI_EXT_OnePktPerEvtCmd
   10009d45     0001c3d4     0001ba98   ble_dispatch.obj (.text)
HCI_EXT_SetTxPowerCmd     $Tramp$TT$L$PI$$HCI_EXT_SetTxPowerCmd
   10009d09     0001c3dc     0001ba9e   ble_dispatch.obj (.text)
HCI_LE_TestEndCmd         $Tramp$TT$L$PI$$HCI_LE_TestEndCmd
   10009c8d     0001c3e4     0001baa2   ble_dispatch.obj (.text)
HCI_LE_ReadSupportedStatesCmd  $Tramp$TT$L$PI$$HCI_LE_ReadSupportedStatesCmd
   10009c15     0001c3ec     0001bab8   ble_dispatch.obj (.text)
HCI_LE_EncryptCmd         $Tramp$TT$L$PI$$HCI_LE_EncryptCmd
   10009af5     0001c3f4     0001bac0   ble_dispatch.obj (.text)
HCI_LE_ReadChannelMapCmd  $Tramp$TT$L$PI$$HCI_LE_ReadChannelMapCmd
   10009aa1     0001c3fc     0001bacc   ble_dispatch.obj (.text)
HCI_LE_RemoveWhiteListCmd  $Tramp$TT$L$PI$$HCI_LE_RemoveWhiteListCmd
   10009a31     0001c404     0001bad4   ble_dispatch.obj (.text)
HCI_LE_ReadWhiteListSizeCmd  $Tramp$TT$L$PI$$HCI_LE_ReadWhiteListSizeCmd
   100099c9     0001c40c     0001bae4   ble_dispatch.obj (.text)
HCI_LE_ReadAdvChanTxPowerCmd  $Tramp$TT$L$PI$$HCI_LE_ReadAdvChanTxPowerCmd
   100098f5     0001c414     0001bae8   ble_dispatch.obj (.text)
HCI_LE_ReadLocalSupportedFeaturesCmd  $Tramp$TT$L$PI$$HCI_LE_ReadLocalSupportedFeaturesCmd
   10009829     0001c41c     0001baec   ble_dispatch.obj (.text)
HCI_ReadLocalSupportedFeaturesCmd  $Tramp$TT$L$PI$$HCI_ReadLocalSupportedFeaturesCmd
   1000973d     0001c424     0001bb00   ble_dispatch.obj (.text)
HCI_ReadTransmitPowerLevelCmd  $Tramp$TT$L$PI$$HCI_ReadTransmitPowerLevelCmd
   100095d1     0001c42c     0001bb16   ble_dispatch.obj (.text)
HCI_SetEventMaskCmd       $Tramp$TT$L$PI$$HCI_SetEventMaskCmd
   10009571     0001c434     0001bb20   ble_dispatch.obj (.text)
HCI_ReadRemoteVersionInfoCmd  $Tramp$TT$L$PI$$HCI_ReadRemoteVersionInfoCmd
   10009541     0001c43c     0001bb26   ble_dispatch.obj (.text)

[119 trampolines]
[205 trampoline calls]


GLOBAL SYMBOLS: SORTED ALPHABETICALLY BY Name 

address   name                                  
-------   ----                                  
10014c00  A1_rw                                 
10005000  A1_rw_1                               
10019ffe  A2_rw                                 
1000dffe  A2_rw_1                               
10019ffc  A3_rw                                 
1000dffc  A3_rw_1                               
20004f2c  A4_rw                                 
200048e8  A4_rw_1                               
20004f7c  ACCX                                  
20004f80  ACCY                                  
20004f84  ACCZ                                  
10015229  ATOMICPATTERN                         
0000e293  ATT_BuildErrorRsp                     
0000e2c3  ATT_BuildExchangeMTUReq               
0000e2cf  ATT_BuildExchangeMTURsp               
0000e5f9  ATT_BuildExecuteWriteReq              
0000e35d  ATT_BuildFindByTypeValueReq           
0000e3b9  ATT_BuildFindByTypeValueRsp           
0000e2f5  ATT_BuildFindInfoReq                  
0000e301  ATT_BuildFindInfoRsp                  
0000e61d  ATT_BuildHandleValueInd               
0000e57f  ATT_BuildPrepareWriteReq              
0000e5a9  ATT_BuildPrepareWriteRsp              
0000e4c3  ATT_BuildReadBlobReq                  
0000e501  ATT_BuildReadBlobRsp                  
0000e541  ATT_BuildReadByGrpTypeRsp             
0000e3db  ATT_BuildReadByTypeReq                
0000e447  ATT_BuildReadByTypeRsp                
0000e513  ATT_BuildReadMultiReq                 
0000e53b  ATT_BuildReadMultiRsp                 
0000e46b  ATT_BuildReadReq                      
0000e487  ATT_BuildReadRsp                      
0000e4b7  ATT_BuildWriteReq                     
0000e6ed  ATT_CompareUUID                       
0000e73d  ATT_ConvertUUIDto128                  
0000e765  ATT_ConvertUUIDto16                   
0000e053  ATT_ErrorRsp                          
0000e065  ATT_ExchangeMTURsp                    
0000e197  ATT_ExecuteWriteRsp                   
0000e0ad  ATT_FindByTypeValueRsp                
0000e07d  ATT_FindInfoRsp                       
0000e7cd  ATT_GetMTU                            
0000e7ef  ATT_GetParamValue                     
0000e1b9  ATT_HandleValueInd                    
0000e1a3  ATT_HandleValueNoti                   
0000e2a5  ATT_ParseErrorRsp                     
0000e2c5  ATT_ParseExchangeMTUReq               
0000e2df  ATT_ParseExchangeMTURsp               
0000e601  ATT_ParseExecuteWriteReq              
0000e613  ATT_ParseExecuteWriteRsp              
0000e377  ATT_ParseFindByTypeValueReq           
0000e3c1  ATT_ParseFindByTypeValueRsp           
0000e2f7  ATT_ParseFindInfoReq                  
0000e319  ATT_ParseFindInfoRsp                  
0000e65d  ATT_ParseHandleValueCfm               
0000e631  ATT_ParseHandleValueInd               
0000e239  ATT_ParsePacket                       
0000e581  ATT_ParsePrepareWriteReq              
0000e5c7  ATT_ParsePrepareWriteRsp              
0000e4dd  ATT_ParseReadBlobReq                  
0000e505  ATT_ParseReadBlobRsp                  
0000e553  ATT_ParseReadByGrpTypeRsp             
0000e40b  ATT_ParseReadByTypeReq                
0000e449  ATT_ParseReadByTypeRsp                
0000e51b  ATT_ParseReadMultiReq                 
0000e53f  ATT_ParseReadMultiRsp                 
0000e46d  ATT_ParseReadReq                      
0000e48b  ATT_ParseReadRsp                      
0000e48d  ATT_ParseWriteReq                     
0000e4b9  ATT_ParseWriteRsp                     
0000e17d  ATT_PrepareWriteRsp                   
0000e115  ATT_ReadBlobRsp                       
0000e14f  ATT_ReadByGrpTypeRsp                  
0000e0cd  ATT_ReadByTypeRsp                     
0000e131  ATT_ReadMultiRsp                      
0000e0f9  ATT_ReadRsp                           
0000e04d  ATT_RegisterServer                    
0000e7ed  ATT_SetParamValue                     
0000e7a3  ATT_UpdateMTU                         
0000e171  ATT_WriteRsp                          
10016c29  AddRoundKeySubBytes_Sw                
10018a19  AesCcm_authEncrypt_Sw                 
10018a35  AesCcm_decryptAuth_Sw                 
10018b09  AesCcm_getNumBlocks_Sw                
10018ac5  Aes_decrypt_Sw                        
10018a99  Aes_encrypt_Sw                        
20004f2c  COMMON_RAM_BASE_ADDR                  
10014c01  COMMON_ROM_BASE_ADDR                  
10015a6d  COPY                                  
00019483  CommonROM_Init                        
10017959  ECC_allocWorkzone                     
10017dbd  ECC_keyGen                            
10017961  ECC_setWin                            
10017ded  ECDH_commonKey                        
10017969  ECDSA_sign                            
10017b01  ECDSA_verif                           
10015a11  EXPORTOPERAND                         
20004f78  EXPW                                  
20004f6c  EXPX                                  
20004f70  EXPY                                  
20004f74  EXPZ                                  
10016f58  FFMult2                               
10017058  FFMult3                               
10016d05  FFMult_Sw                             
10018d6c  Fill1                                 
1000d9ec  Fill1_1                               
0001a949  GAPBondMgr_CheckNVLen                 
0001a987  GAPBondMgr_GetParameter               
0001ac0f  GAPBondMgr_Init                       
0001a837  GAPBondMgr_LinkEst                    
0001a4d1  GAPBondMgr_LinkTerm                   
0001a907  GAPBondMgr_PasscodeRsp                
0001a6f9  GAPBondMgr_ProcessEvent               
0001a525  GAPBondMgr_ProcessGAPMsg              
0001a933  GAPBondMgr_Register                   
00019e81  GAPBondMgr_ResolveAddr                
0001aa55  GAPBondMgr_SetParameter               
00019fcb  GAPBondMgr_UpdateCharCfg              
0000edb9  GAP_Authenticate                      
0000eef3  GAP_Bond                              
0000e89b  GAP_ConfigDeviceAddr                  
0001bc45  GAP_DeviceInit                        
0000f6af  GAP_EndDiscoverable                   
0000f7a5  GAP_GetAdvToken                       
0000e895  GAP_GetIRK                            
0000e81f  GAP_GetParamValue                     
0000fcef  GAP_Init                              
0000f5b5  GAP_MakeDiscoverable                  
0000fdcd  GAP_NumActiveConnections              
0000e831  GAP_ParamsInit                        
0000eea7  GAP_PasscodeUpdate                    
0000ee73  GAP_PasskeyUpdate                     
0000fc13  GAP_PeriConnRegister                  
0000f819  GAP_PeriDevMgrInit                    
0000e873  GAP_PrivacyInit                       
0000fd05  GAP_ProcessEvent                      
0000ffad  GAP_RegisterBondMgrCBs                
0000fce9  GAP_RegisterForMsgs                   
0000f7bb  GAP_RemoveAdvToken                    
0000eb4d  GAP_ResolvePrivateAddr                
0000e859  GAP_SecParamsInit                     
0000fbd9  GAP_SendSlaveSecurityRequest          
0000f6fb  GAP_SetAdvToken                       
0000e805  GAP_SetParamValue                     
0000ed71  GAP_Signable                          
0000ee55  GAP_TerminateAuth                     
0000ebfd  GAP_TerminateLinkReq                  
0000f805  GAP_UpdateAdvTokens                   
0000f647  GAP_UpdateAdvertisingData             
0000ec77  GAP_UpdateLinkParamReq                
0000ecdf  GAP_UpdateLinkParamReqReply           
00011497  GATTServApp_AddService                
000114ad  GATTServApp_DelService                
0001133b  GATTServApp_DeregisterService         
00012163  GATTServApp_GetParamValue             
000113dd  GATTServApp_GetParameter              
00011259  GATTServApp_Init                      
0001c07b  GATTServApp_InitCharCfg               
000112a7  GATTServApp_ProcessEvent              
00011ee1  GATTServApp_ReadAttr                  
0001c06b  GATTServApp_ReadCharCfg               
00011251  GATTServApp_RegisterForMsg            
000112e5  GATTServApp_RegisterService           
000121d9  GATTServApp_SendCCCUpdatedEvent       
00012161  GATTServApp_SetParamValue             
0001137f  GATTServApp_SetParameter              
20004388  GATTServApp_TaskID                    
00012167  GATTServApp_UpdateCharCfg             
000120d9  GATTServApp_WriteAttr                 
00010e37  GATT_AppCompletedMsg                  
00010405  GATT_DeregisterService                
000105a7  GATT_FindHandle                       
00010549  GATT_FindHandleUUID                   
000105f3  GATT_FindNextAttr                     
00011111  GATT_FindUUIDRec                      
00010da5  GATT_GetNextHandle                    
00010747  GATT_Indication                       
00010e5f  GATT_Init                             
00010301  GATT_InitServer                       
000107b3  GATT_Notification                     
00010fc9  GATT_NotifyEvent                      
00010e7d  GATT_ProcessEvent                     
00010e25  GATT_RegisterForMsgs                  
00010445  GATT_RegisterForReq                   
00010369  GATT_RegisterService                  
00010693  GATT_SendRsp                          
000104d7  GATT_ServiceChangedInd                
00010683  GATT_ServiceEncKeySize                
00010677  GATT_ServiceNumAttrs                  
00010e2b  GATT_SetHostToAppFlowCtrl             
00010e15  GATT_SetNextHandle                    
00010fdd  GATT_UpdateMTU                        
0001044d  GATT_VerifyReadPermissions            
00010483  GATT_VerifyWritePermissions           
00011085  GATT_bm_alloc                         
000110fd  GATT_bm_free                          
10015141  GETBIT                                
10015155  GETDIGIT                              
100151a5  GETDIGITL2R                           
00010091  GGS_AddService                        
000100a9  GGS_DelService                        
0001008d  GGS_GetParamValue                     
00010055  GGS_GetParameter                      
000100bd  GGS_RegisterAppCBs                    
0001008b  GGS_SetParamValue                     
0000ffd5  GGS_SetParameter                      
10008add  HCI_CommandCompleteEvent              
10008ba1  HCI_CommandStatusEvent                
10008a2d  HCI_DataBufferOverflowEvent           
10009525  HCI_DisconnectCmd                     
1000a0f1  HCI_EXT_AdvEventNoticeCmd             
1000a109  HCI_EXT_BuildRevisionCmd              
10009d79  HCI_EXT_ClkDivOnHaltCmd               
0001550b  HCI_EXT_ConnEventNoticeCmd            
10009dad  HCI_EXT_DeclareNvUsageCmd             
10009dd1  HCI_EXT_DecryptCmd                    
000154e7  HCI_EXT_DelaySleepCmd                 
1000a011  HCI_EXT_DisconnectImmedCmd            
10009f69  HCI_EXT_EnablePTMCmd                  
10009eed  HCI_EXT_EndModemTestCmd               
1000a095  HCI_EXT_ExtendRfRangeCmd              
00015377  HCI_EXT_GetConnInfoCmd                
1000a0d1  HCI_EXT_HaltDuringRfCmd               
10009ff1  HCI_EXT_MapPmIoPortCmd                
10009ead  HCI_EXT_ModemHopTestTxCmd             
10009ecd  HCI_EXT_ModemTestRxCmd                
10009e8d  HCI_EXT_ModemTestTxCmd                
1000a1b5  HCI_EXT_NumComplPktsLimitCmd          
10009d45  HCI_EXT_OnePktPerEvtCmd               
1000a195  HCI_EXT_OverlappedProcessingCmd       
1000a075  HCI_EXT_PERbyChanCmd                  
1000a031  HCI_EXT_PacketErrorRateCmd            
000154c1  HCI_EXT_ResetSystemCmd                
10009fb1  HCI_EXT_SaveFreqTuneCmd               
10009f0d  HCI_EXT_SetBDADDRCmd                  
10009e4d  HCI_EXT_SetFastTxResponseTimeCmd      
10009f81  HCI_EXT_SetFreqTuneCmd                
10009e2d  HCI_EXT_SetLocalSupportedFeaturesCmd  
10009fd1  HCI_EXT_SetMaxDtmTxPowerCmd           
10009cd5  HCI_EXT_SetRxGainCmd                  
10009f49  HCI_EXT_SetSCACmd                     
10009e6d  HCI_EXT_SetSlaveLatencyOverrideCmd    
10009d09  HCI_EXT_SetTxPowerCmd                 
00018c73  HCI_ExtTaskRegister                   
00018c61  HCI_GAPTaskRegister                   
10008bf5  HCI_HardwareErrorEvent                
10009631  HCI_HostBufferSizeCmd                 
1000965d  HCI_HostNumCompletedPktCmd            
00018bed  HCI_Init                              
00018c67  HCI_L2CAPTaskRegister                 
10009a15  HCI_LE_AddWhiteListCmd                
100099f9  HCI_LE_ClearWhiteListCmd              
000154b1  HCI_LE_ConnUpdateCmd                  
1000999d  HCI_LE_CreateConnCancelCmd            
1000995d  HCI_LE_CreateConnCmd                  
10009af5  HCI_LE_EncryptCmd                     
10009be1  HCI_LE_LtkReqNegReplyCmd              
10009bc5  HCI_LE_LtkReqReplyCmd                 
10009b51  HCI_LE_RandCmd                        
100098f5  HCI_LE_ReadAdvChanTxPowerCmd          
00015405  HCI_LE_ReadBufSizeCmd                 
10009aa1  HCI_LE_ReadChannelMapCmd              
10009829  HCI_LE_ReadLocalSupportedFeaturesCmd  
0001543b  HCI_LE_ReadRemoteUsedFeaturesCmd      
10009c15  HCI_LE_ReadSupportedStatesCmd         
100099c9  HCI_LE_ReadWhiteListSizeCmd           
00015477  HCI_LE_ReceiverTestCmd                
00015437  HCI_LE_RemoteConnParamReqNegReplyCmd  
00015433  HCI_LE_RemoteConnParamReqReplyCmd     
10009a31  HCI_LE_RemoveWhiteListCmd             
100098a1  HCI_LE_SetAdvDataCmd                  
100098d9  HCI_LE_SetAdvEnableCmd                
1000986d  HCI_LE_SetAdvParamCmd                 
0001550f  HCI_LE_SetEventMaskCmd                
10009a85  HCI_LE_SetHostChanClassificationCmd   
10009849  HCI_LE_SetRandomAddressCmd            
10009941  HCI_LE_SetScanEnableCmd               
10009915  HCI_LE_SetScanParamCmd                
100098bd  HCI_LE_SetScanRspDataCmd              
10009ba9  HCI_LE_StartEncyptCmd                 
10009c8d  HCI_LE_TestEndCmd                     
00015465  HCI_LE_TransmitterTestCmd             
00014f1b  HCI_NumOfCompletedPacketsEvent        
00018c1f  HCI_ProcessEvent                      
10009765  HCI_ReadBDADDRCmd                     
00015363  HCI_ReadLocalSupportedCommandsCmd     
1000973d  HCI_ReadLocalSupportedFeaturesCmd     
00015545  HCI_ReadLocalVersionInfoCmd           
10009541  HCI_ReadRemoteVersionInfoCmd          
0001559d  HCI_ReadRssiCmd                       
100095d1  HCI_ReadTransmitPowerLevelCmd         
00015341  HCI_ResetCmd                          
1000d7cd  HCI_ReverseBytes                      
00018c6d  HCI_SMPTaskRegister                   
10008c81  HCI_SendCommandCompleteEvent          
10008c59  HCI_SendCommandStatusEvent            
10008d31  HCI_SendControllerToHostEvent         
100094e9  HCI_SendDataPkt                       
100095f5  HCI_SetControllerToHostFlowCtrlCmd    
10009571  HCI_SetEventMaskCmd                   
00015489  HCI_SetEventMaskPage2Cmd              
00018c5b  HCI_TestAppTaskRegister               
00015305  HCI_ValidConnTimeParams               
00015289  HCI_VendorSpecifcCommandCompleteEvent 
100094a1  HCI_bm_alloc                          
0001ac4d  HalFlashGetAddress                    
0001ac67  HalFlashRead                          
0001ac93  HalFlashWrite                         
00019503  HalTRNG_GetTRNG                       
000194e1  HalTRNG_InitTRNG                      
20004478  ICall_dispatcher                      
2000447c  ICall_enterCriticalSection            
20004480  ICall_leaveCriticalSection            
10015a35  IMPORTDATA                            
100159a9  IMPORTLENGTH                          
100159ad  IMPORTMODULUS                         
100159d1  IMPORTOPERAND                         
1001568d  INVERT                                
10016da1  InvAddRoundKey_Sw                     
10016ed5  InvMixColumns_Sw                      
10016dc9  InvRoundKey_Sw                        
10017264  InvSbox                               
10016ea1  InvShiftRows_Sw                       
10016e8d  InvSubBytes_Sw                        
100154f5  JACADD                                
000128c9  L2CAP_BuildCmdReject                  
000129e1  L2CAP_BuildInfoRsp                    
000129ad  L2CAP_BuildParamUpdateRsp             
000122a9  L2CAP_CmdReject                       
000122cf  L2CAP_ConnParamUpdateReq              
00012305  L2CAP_ConnParamUpdateRsp              
00012373  L2CAP_GetMTU                          
00012cd5  L2CAP_GetParamValue                   
00012351  L2CAP_HostNumCompletedPkts            
000122b7  L2CAP_InfoReq                         
0001239d  L2CAP_Init                            
000129c9  L2CAP_ParseInfoReq                    
00012973  L2CAP_ParseParamUpdateReq             
000123ff  L2CAP_ProcessEvent                    
0001221d  L2CAP_RegisterApp                     
0001250d  L2CAP_RegisterFlowCtrlTask            
00012247  L2CAP_SendData                        
00012367  L2CAP_SetBufSize                      
00012317  L2CAP_SetControllerToHostFlowCtrl     
00012cd3  L2CAP_SetParamValue                   
00012399  L2CAP_SetUserConfig                   
00012cb9  L2CAP_bm_alloc                        
20004fe8  LEN                                   
10005739  LL_AddWhiteListDevice                 
10008d81  LL_AdvReportCback                     
00014ffb  LL_AuthPayloadTimeoutExpiredCback     
10005719  LL_ClearWhiteList                     
1000678d  LL_ConnActive                         
00014e1d  LL_ConnParamUpdateCback               
10008ead  LL_ConnectionCompleteCback            
100058d5  LL_CtrlToHostFlowControl              
000179f5  LL_DirectTestEnd                      
10009471  LL_DirectTestEndDoneCback             
000178f5  LL_DirectTestRxTest                   
0001777b  LL_DirectTestTxTest                   
10005a39  LL_Disconnect                         
10009005  LL_DisconnectCback                    
0001885b  LL_DoorbellErrorCback                 
1000b639  LL_ENC_AES128_Decrypt                 
1000b5f5  LL_ENC_AES128_Encrypt                 
000166d7  LL_ENC_Decrypt                        
1000b851  LL_ENC_DecryptMsg                     
00016669  LL_ENC_Encrypt                        
1000b721  LL_ENC_EncryptMsg                     
1000b555  LL_ENC_GenDeviceIV                    
1000b541  LL_ENC_GenDeviceSKD                   
1000b569  LL_ENC_GenerateNonce                  
1000b50d  LL_ENC_GeneratePseudoRandNum          
1000b51d  LL_ENC_GenerateTrueRandNum            
1000b4c9  LL_ENC_Init                           
1000b58d  LL_ENC_LoadKey                        
1000b4ed  LL_ENC_ReverseBytes                   
10007025  LL_EXT_AdvEventNotice                 
00017d85  LL_EXT_BuildRevision                  
10006b7d  LL_EXT_ClkDivOnHalt                   
00017d29  LL_EXT_ConnEventNotice                
10006b81  LL_EXT_DeclareNvUsage                 
10006b85  LL_EXT_Decrypt                        
100070a1  LL_EXT_DelaySleep                     
00017dbd  LL_EXT_DisconnectImmed                
00017755  LL_EXT_EndModemTest                   
1000701d  LL_EXT_ExtendRfRange                  
1000a2ad  LL_EXT_ExtendRfRangeCback             
000172a1  LL_EXT_GetConnInfo                    
10007021  LL_EXT_HaltDuringRf                   
10006f49  LL_EXT_MapPmIoPort                    
00017599  LL_EXT_ModemHopTestTx                 
000176b7  LL_EXT_ModemTestRx                    
00017633  LL_EXT_ModemTestTx                    
00017d5d  LL_EXT_NumComplPktsLimit              
10006b59  LL_EXT_OnePacketPerEvent              
10007109  LL_EXT_OverlappedProcessing           
10006fed  LL_EXT_PERbyChan                      
10006f99  LL_EXT_PacketErrorRate                
1000a259  LL_EXT_PacketErrorRateCback           
100070d5  LL_EXT_ResetSystem                    
10006efd  LL_EXT_SaveFreqTune                   
10006e01  LL_EXT_SetBDADDR                      
10006bc5  LL_EXT_SetFastTxResponseTime          
10006ef9  LL_EXT_SetFreqTune                    
0001741f  LL_EXT_SetLocalSupportedFeatures      
00017485  LL_EXT_SetMaxDtmTxPower               
10006ad9  LL_EXT_SetRxGain                      
1000a201  LL_EXT_SetRxGainCback                 
10006e85  LL_EXT_SetSCA                         
10006bdd  LL_EXT_SetSlaveLatencyOverride        
00017451  LL_EXT_SetTxPower                     
1000a211  LL_EXT_SetTxPowerCback                
1000933d  LL_EncChangeCback                     
100093dd  LL_EncKeyRefreshCback                 
00017393  LL_EncLtkNegReply                     
0001734d  LL_EncLtkReply                        
1000925d  LL_EncLtkReqCback                     
100057d5  LL_Encrypt                            
0001506f  LL_EnhancedConnectionCompleteCback    
00017cbb  LL_GetNumActiveConns                  
00016e19  LL_Init                               
0001886d  LL_LastCmdDoneCback                   
100057b9  LL_NumEmptyWlEntries                  
00018735  LL_PM_Enter_AES                       
0001874b  LL_PM_Exit_AES                        
00018731  LL_PM_GetRfCoreState                  
00018775  LL_PM_PowerOffRfCore                  
0001707f  LL_ProcessEvent                       
10005801  LL_PseudoRand                         
1000556d  LL_RX_bm_alloc                        
100057f5  LL_Rand                               
1000a1d5  LL_RandCback                          
10006105  LL_ReadAdvChanTxPower                 
100056c9  LL_ReadBDADDR                         
100059a1  LL_ReadChanMap                        
10005879  LL_ReadLocalSupportedFeatures         
1000589d  LL_ReadLocalVersionInfo               
000173cf  LL_ReadRemoteUsedFeatures             
00014eaf  LL_ReadRemoteUsedFeaturesCompleteCback
100058e9  LL_ReadRemoteVersionInfo              
100091e1  LL_ReadRemoteVersionInfoCback         
00017cc7  LL_ReadRssi                           
00017c9f  LL_ReadSupportedStates                
000174a1  LL_ReadTxPowerLevel                   
100057a1  LL_ReadWlSize                         
10005765  LL_RemoveWhiteListDevice              
000171a7  LL_Reset                              
00014d31  LL_RxDataCompleteCback                
00018a51  LL_RxEntryDoneCback                   
00018a4f  LL_RxIgnoredCback                     
00017b9d  LL_SetAdvControl                      
10005f89  LL_SetAdvData                         
00017a8d  LL_SetAdvParam                        
100056e9  LL_SetRandomAddress                   
1000612d  LL_SetScanRspData                     
10005549  LL_TX_bm_alloc                        
20004c84  LL_TaskID                             
000174df  LL_TxData                             
00018a21  LL_TxDoneCback                        
00018a35  LL_TxEntryDoneCback                   
100158ac  LUTC                                  
100158dc  LUTINCI                               
100158f4  LUTJ                                  
1001588c  LUTOPCODE                             
10015894  LUTOPSIGN                             
100158c4  LUTSE                                 
1001596c  LUTSTATE                              
20004fe4  MOD                                   
20004fd8  MSBMOD                                
10016c79  MixColumns_Sw                         
10018b9c  NIST256_Gx                            
10018bc0  NIST256_Gy                            
10018b54  NIST256_a                             
10018b78  NIST256_b                             
10018b0c  NIST256_p                             
10018b30  NIST256_r                             
0001902f  NOROM_CPUcpsid                        
00019023  NOROM_CPUcpsie                        
00019059  NOROM_FlashProgram                    
0001903d  NOROM_FlashSectorErase                
000190e5  NOROM_IntDisable                      
00019075  NOROM_IntEnable                       
00019141  NOROM_TRNGConfigure                   
00019175  NOROM_VIMSModeGet                     
0001b241  NVOCOP_compactNV                      
0001b2ad  NVOCOP_initNV                         
0001ae97  NVOCOP_readItem                       
0001b18d  NVOCOP_writeItem                      
0001e000  NV_FLASH                              
200047f8  OSAL_timeSeconds                      
00019581  Onboard_rand                          
0001957d  Onboard_soft_reset                    
10014c04  P1_ro                                 
10005004  P1_ro_1                               
10019ffe  P1_ro_2                               
1000dffe  P1_ro_2_1                             
20004f40  P2_rw                                 
20004f40  P2_s0                                 
20004fac  P2_zi                                 
200048fc  P2_zi_1                               
0001c484  R2F_Flash_JT                          
0001c46c  R2F_Flash_JT_CommonROM                
0001c620  R2R_Flash_JT                          
0001c52c  R2R_Flash_JT_CommonROM                
200048e8  RAM_BASE_ADDR                         
10017158  RCon                                  
00014c97  RFHAL_AddTxDataEntry                  
100184f9  RFHAL_AllocDataEntry                  
100184a9  RFHAL_AllocDataEntryQueue             
10018315  RFHAL_AllocRatChan                    
100185e1  RFHAL_BuildDataEntryRingBuffer        
10018669  RFHAL_BuildLinkedBuffer               
10018551  RFHAL_BuildRingBuffer                 
10018549  RFHAL_FreeDataEntry                   
100184c5  RFHAL_FreeDataEntryQueue              
10018485  RFHAL_FreeNextTxDataEntry             
1001833d  RFHAL_FreeRatChan                     
100184cd  RFHAL_GetNextDataEntry                
100184d1  RFHAL_GetTempDataEntry                
100183b9  RFHAL_InitDataQueue                   
00014c33  RFHAL_InitRfHal                       
10018369  RFHAL_MapRatChansToInt                
100184d5  RFHAL_NextDataEntryDone               
100183c5  RFHAL_QueueRFDataEntries              
10018391  RFHAL_RegisterRatChanCallback         
10005001  ROM_BASE_ADDR                         
000194a3  ROM_Init                              
0001944d  ROM_Spinlock                          
10016b79  RoundKey_Sw                           
10015101  SAVEPOINT                             
1000d964  SCA                                   
20004f68  SCAL                                  
100150e5  SCALARMUL                             
10014ced  SCALARMUL_core                        
10015019  SCALARMUL_final                       
10014c05  SCALARMUL_init                        
10015a51  SETOPERAND                            
10015a91  SETWORD                               
10018089  SHA256_final                          
10018129  SHA256_full                           
10017ffd  SHA256_init                           
10017ef1  SHA256_nextState                      
10018019  SHA256_process                        
10017e75  SHA256_round                          
10017f49  SHA256_saveBuffer                     
10017e39  SHA256_updateW                        
UNDEFED   SHT$$INIT_ARRAY$$Base                 
UNDEFED   SHT$$INIT_ARRAY$$Limit                
00012fc5  SM_CalcRandomAddr                     
00013053  SM_Encrypt                            
000132ed  SM_GenerateAuthenSig                  
000143b9  SM_Init                               
000136f3  SM_PasskeyUpdate                      
000143d5  SM_ProcessEvent                       
00012ffd  SM_ResolveRandomAddrs                 
00013e49  SM_ResponderInit                      
00013665  SM_StartPairing                       
00013387  SM_VerifyAuthenSig                    
10015821  SQUAREMULTIPLYWORD                    
10017895  SSP_CCM_Auth_Encrypt_Sw               
10017365  SSP_CCM_Auth_Sw                       
1001767d  SSP_CCM_Decrypt_Sw                    
100174fd  SSP_CCM_Encrypt_Sw                    
100178f5  SSP_CCM_InvAuth_Decrypt_Sw            
10017839  SSP_CCM_InvAuth_Sw                    
10017771  SSP_CTR_Decrypt_Sw                    
100175ed  SSP_CTR_Encrypt_Sw                    
10017164  Sbox                                  
10015215  SelectReg                             
10016c45  ShiftRows_Sw                          
2000466c  SysBootMsg                            
20004f88  TMP1                                  
20004f8c  TMP2                                  
20004f90  TMP3                                  
20004f94  TMP4                                  
20004f98  TMP5                                  
20004f9c  TMP6                                  
1000d2d9  WL_AddEntry                           
00018777  WL_Clear                              
1000d1f5  WL_ClearEntry                         
00018807  WL_ClearIgnoreList                    
000187a5  WL_FindEntry                          
0001879b  WL_GetNumFreeEntries                  
1000d229  WL_GetSize                            
1000d189  WL_Init                               
1000d36d  WL_RemoveEntry                        
000187e7  WL_SetWlIgnore                        
10015a85  ZERO                                  
0001cbbc  __TI_CINIT_Base                       
0001cbcc  __TI_CINIT_Limit                      
0001cbb0  __TI_Handler_Table_Base               
0001cbbc  __TI_Handler_Table_Limit              
00018c95  __TI_auto_init                        
0001c039  __TI_decompress_none                  
0001c033  __TI_decompress_rle24                 
0000e000  __TI_static_base__                    
0001bfbd  __TI_zero_init                        
00018d01  __aeabi_lmul                          
00018db5  __aeabi_memclr                        
00018db5  __aeabi_memclr4                       
00018db5  __aeabi_memclr8                       
00018d19  __aeabi_memcpy                        
00018d19  __aeabi_memcpy4                       
00018d19  __aeabi_memcpy8                       
00018db7  __aeabi_memset                        
00018db7  __aeabi_memset4                       
00018db7  __aeabi_memset8                       
00018e2f  __aeabi_uldivmod                      
ffffffff  __binit__                             
ffffffff  __c_args__                            
1000dffe  __checksum                            
10019ffe  __checksum_CommonROM                  
10005000  __checksum_begin                      
10014c00  __checksum_begin_CommonROM            
1000dffd  __checksum_end                        
10019ffd  __checksum_end_CommonROM              
00005721  __checksum_value                      
0000e0ea  __checksum_value_CommonROM            
10018ced  __exit                                
1000d9b0  advChan                               
20004c24  advCmd                                
20004bdc  advDataEntry                          
20004c14  advDataQueue                          
1000d9b4  advEvt2Cmd                            
1000d9c0  advEvt2State                          
200049ec  advInfo                               
20004654  advInfoExt                            
20004e98  advOutput                             
20004d58  advParam                              
0001cb60  advPktSuffix                          
0001957f  appForceBoot                          
200045f5  appTaskID                             
00011230  appearanceUUID                        
20004748  assertSubcause                        
0000e667  attSendMsg                            
20004fdc  aux64                                 
20004778  baseTaskID                            
ffffffff  binit                                 
0001bbef  bleDispatch_BMAlloc                   
0001bc1b  bleDispatch_BMFree                    
0001bc33  bleDispatch_Init                      
0001bb8f  bleDispatch_ProcessEvent              
20004430  bleDispatch_TaskID                    
20004f08  bleEvtMask                            
0000e7f4  btBaseUUID                            
20004c98  buildInfo                             
20004ee8  cachedTRNGdata                        
2000477c  cbTimers                              
20004ca8  chanMapUpdate                         
00011228  charAggFormatUUID                     
00011214  charExtPropsUUID                      
00011224  charFormatUUID                        
00011218  charUserDescUUID                      
00011210  characterUUID                         
0001121c  clientCharCfgUUID                     
20004e70  connOutput                            
20004dc8  connReqData                           
00013654  const_Rb                              
0001bf71  copy_in                               
20004f24  ctrlToHostEnable                      
20004cb9  curTxPowerVal                         
20004fa0  data_Gx                               
20004fa4  data_Gy                               
20004f50  data_a                                
20004fa8  data_b                                
20004f48  data_p                                
20004f4c  data_r                                
20004ed0  deviceFeatureSet                      
0001122c  deviceNameUUID                        
20004edc  dtmInfo                               
00011248  extReportRefUUID                      
20004cbb  fastTxRespTime                        
20004fcc  fwInfoCmd                             
0000ea1f  gapAddAddrAdj                         
200044ac  gapAppTaskID                          
200044af  gapAutoAdvPrivateAddrChange           
2000483a  gapBond_lruBondList                   
20004811  gapBond_removeLRUBond                 
0000ebd1  gapClrState                           
200044ae  gapDeviceAddrMode                     
0000eb73  gapFindADType                         
0000f331  gapFreeEstLink                        
0000eadb  gapGetDevAddress                      
0000ead5  gapGetDevAddressMode                  
0000eaad  gapGetSRK                             
0000eab3  gapGetSignCounter                     
0000ea43  gapHost2CtrlOwnAddrType               
0000eabb  gapIncSignCounter                     
0000eb51  gapIsAdvertising                      
0000eb55  gapIsScanning                         
0000f461  gapPairingCompleteCB                  
0000f3f9  gapPasskeyNeededCB                    
200044b0  gapPrivateAddrChangeTimeout           
0000effd  gapProcessConnectionCompleteEvt       
0000f0d7  gapProcessDisconnectCompleteEvt       
0000e9f1  gapProcessNewAddr                     
0000ea4d  gapProcessRandomAddrComplete          
0000f0ab  gapProcessRemoteConnParamReqEvt       
200044ad  gapProfileRole                        
0000e971  gapReadBD_ADDRStatus                  
0000e9ad  gapReadBufSizeCmdStatus               
0000ffa1  gapRegisterCentral                    
0000ffa7  gapRegisterPeripheral                 
0000f591  gapRegisterPeripheralConn             
0000f34d  gapSendBondCompleteEvent              
0000f1bd  gapSendLinkUpdateEvent                
0000f39f  gapSendPairingReqEvent                
0000efbb  gapSendSlaveSecurityReqEvent          
000102f4  gapServiceCBs                         
000111fc  gapServiceUUID                        
0000ebc7  gapSetState                           
20004354  gapState                              
20004548  gapTaskID                             
20004549  gapUnwantedTaskID                     
0000ef69  gapUpdateConnSignCounter              
0000eb5f  gapValidADType                        
200045f4  gattAppTaskID                         
00011031  gattGetPayload                        
00010f4b  gattNotifyEvent                       
20004355  gattNumConns                          
00010e1f  gattRegisterClient                    
00010e19  gattRegisterServer                    
00011003  gattSendFlowCtrlEvt                   
00011200  gattServiceUUID                       
00010fa1  gattStartTimer                        
00010fb1  gattStopTimer                         
20004356  gattTaskID                            
2000474c  halAssertCback                        
00019549  halAssertHandler                      
0001954d  halAssertHandlerExt                   
00019563  halAssertInit                         
0001954b  halAssertSpinlock                     
2000442d  hciExtTaskID                          
2000442a  hciGapTaskID                          
00014dd9  hciInitEventMasks                     
2000442b  hciL2capTaskID                        
20004f28  hciPTMenabled                         
2000442c  hciSmpTaskID                          
20004428  hciTaskID                             
20004429  hciTestTaskID                         
20004f58  inPointX                              
20004f5c  inPointY                              
20004f54  inScalar                              
0001120c  includeUUID                           
20004db0  initCmd                               
20004b94  initDataEntry                         
20004bcc  initDataQueue                         
20004e58  initInfo                              
20004eb8  initOutput                            
20004cf0  initParam                             
0001cb68  initPktSuffix                         
00012b19  l2capAllocConnChannel                 
000129b9  l2capBuildInfoReq                     
00012947  l2capBuildParamUpdateReq              
2000460c  l2capChannels                         
00012c15  l2capDisconnectAllChannels            
000127c9  l2capEncapSendData                    
00012b79  l2capFindLocalId                      
20004398  l2capFixedChannels                    
00012b6b  l2capFreeChannel                      
00012c13  l2capHandleRxError                    
200043c8  l2capId                               
200045f6  l2capMtuSize                          
00012a87  l2capNotifyData                       
00012acb  l2capNotifySignal                     
20004609  l2capNumChannels                      
2000460a  l2capNumDataPkts                      
00012907  l2capParseCmdReject                   
00012a27  l2capParseInfoRsp                     
00012873  l2capParsePacket                      
000129af  l2capParseParamUpdateRsp              
0001264d  l2capParseSignalHdr                   
000126c5  l2capSendCmd                          
0001275b  l2capSendPkt                          
00012661  l2capSendReq                          
00012ba3  l2capStartTimer                       
00012bb7  l2capStopTimer                        
00012735  l2capStoreFCPkt                       
20004608  l2capTaskID                           
20004749  legacyMode                            
200043cc  linkDBNumConns                        
00012d45  linkDB_Add                            
00012f27  linkDB_Authen                         
00012e47  linkDB_Find                           
00012e71  linkDB_FindFirst                      
00012e07  linkDB_GetInfo                        
00012cd9  linkDB_Init                           
00012f1b  linkDB_MTU                            
00012ed1  linkDB_NumActive                      
00012ef9  linkDB_NumConns                       
00012f73  linkDB_PerformFunc                    
00012d27  linkDB_Register                       
00012dab  linkDB_Remove                         
00012ec5  linkDB_Role                           
00012ea3  linkDB_State                          
00012ddf  linkDB_Update                         
00012eff  linkDB_UpdateMTU                      
00012f9f  linkDB_reportStatusChange             
00017f37  llActiveTask                          
1000cd51  llAdv_TaskAbort                       
00015733  llAdv_TaskConnect                     
0001566f  llAdv_TaskEnd                         
000160a9  llAlignToNextEvent                    
00015ab7  llAllocConnId                         
00017ebb  llAllocTask                           
100082f1  llAtLeastTwoChans                     
1000d94d  llCalcScaFactor                       
1000c1b5  llCheckForLstoDuringSL                
00014b8d  llCheckRxBuffers                      
00016269  llCheckWhiteListUsage                 
100072e9  llClearRfInts                         
00015f7b  llCombinePDU                          
0001cb78  llConfigTable                         
00015d1b  llConnCleanup                         
10008631  llConnTerminate                       
20004664  llConnectionExt                       
20004cb0  llConns                               
10008741  llConvertCtrlProcTimeoutToEvent       
10008721  llConvertLstoToEvent                  
00014b5f  llCreateRxBuffer                      
10008985  llDataQEmpty                          
10008965  llDataQFull                           
00015df5  llDequeueCtrlPkt                      
10008921  llDequeueDataQ                        
0001560d  llDirAdv_TaskEnd                      
100072e5  llDisableRfInts                       
100072ed  llEnableRfInts                        
100080bd  llEnqueueCtrlPkt                      
10008889  llEnqueueDataQ                        
100088b5  llEnqueueHeadDataQ                    
1000d795  llEqAlreadyValidAddr                  
1000d6e5  llEqSynchWord                         
1000d709  llEqualBytes                          
10008719  llEventDelta                          
100086f1  llEventInRange                        
1000a939  llFindNextSecTask                     
1000a895  llFindStartType                       
00015f19  llFragmentPDU                         
1000abed  llFreeTask                            
100086b9  llGenerateCRC                         
1000d695  llGenerateValidAccessAddr             
1000aca9  llGetActiveTasks                      
1000d4ad  llGetAdvChanPDU                       
1000ac3d  llGetCurrentTask                      
00017e7b  llGetCurrentTime                      
00015ead  llGetMinCI                            
00015e5d  llGetNextConn                         
000162bd  llGetNextDataChan                     
1000ace1  llGetNumTasks                         
1000b009  llGetNumTxDataEntries                 
00017f6d  llGetTask                             
00017f15  llGetTaskState                        
00016255  llGetTxPower                          
1000d6b1  llGtSixConsecZerosOrOnes              
1000d731  llGtTwentyFourTransitions             
000164c5  llHaltRadio                           
000165cf  llHardwareError                       
00015bf5  llInitFeatureSet                      
00017e79  llInitRAT                             
1000d761  llLtTwoChangesInLastSixBits           
100089f1  llMemCopyDst                          
100089d9  llMemCopySrc                          
1000afa1  llMoveTempTxDataEntries               
00016491  llOctets2Time                         
1000d6f5  llOneBitSynchWordDiffer               
1000adb1  llPatchCM0                            
10008665  llPendingUpdateParam                  
0001627d  llProcessChanMap                      
100072f1  llProcessPostRfOps                    
0001483d  llProcessSlaveControlPacket           
000184a1  llProcessSlaveControlProcedures       
00015cb1  llProcessTxData                       
00014c31  llRatChanCBack_A                      
1000ae41  llRatChanCBack_B                      
1000ae45  llRatChanCBack_C                      
1000ae49  llRatChanCBack_D                      
10008461  llReleaseAllConnId                    
10008429  llReleaseConnId                       
00015e31  llReplaceCtrlPkt                      
00014bb3  llReplaceRxBuffers                    
000165cd  llResetRadio                          
0001619d  llRfInit                              
00016155  llRfSetup                             
000164e5  llRfStartFS                           
00017f9d  llScheduleTask                        
1000a335  llScheduler                           
00017e89  llSchedulerInit                       
00016357  llSendReject                          
100072e1  llSetFreqTune                         
00016309  llSetNextDataChan                     
0001620b  llSetTxPower                          
100073e5  llSetupAdv                            
1000aeb1  llSetupAdvDataEntryQueue              
00014ad9  llSetupConnRxDataEntryQueue           
10007aed  llSetupEncReq                         
10007b95  llSetupEncRsp                         
00015c0d  llSetupFeatureSetRsp                  
100077b5  llSetupInit                           
1000ae95  llSetupInitDataEntryQueue             
00018203  llSetupNextSlaveEvent                 
10007cfd  llSetupPauseEncReq                    
10007d55  llSetupPauseEncRsp                    
00014bff  llSetupRATChanCompare                 
10007df5  llSetupRejectInd                      
00014be5  llSetupRfHal                          
100075fd  llSetupScan                           
1000ae4d  llSetupScanDataEntryQueue             
00015c6f  llSetupStartEncReq                    
10007ca9  llSetupStartEncRsp                    
00016375  llSetupTermInd                        
10008069  llSetupUnknownRsp                     
100079c9  llSetupUpdateParamReq                 
10007f29  llSetupVersionIndReq                  
00018031  llSlave_TaskEnd                       
20004cb8  llState                               
1000d9e1  llTaskError                           
20004ef4  llTaskList                            
00016463  llTime2Octets                         
1000d8c9  llTimeCompare                         
1000d8f5  llTimeDelta                           
2000462c  llUserConfig                          
000165d3  llValidateConnParams                  
00015a35  llVerifyConnParamReqParams            
000163e7  llWriteTxData                         
0001cba8  ll_buildRevision                      
10016551  mADD                                  
10015bd5  mINVK                                 
10015f81  mMULT                                 
10016749  mOUT                                  
10015a9d  mSET                                  
1001664d  mSUB                                  
20004cbc  maxNumConns                           
20004652  maxNumTxDataBufs                      
20004650  maxPduSize                            
0001cb70  maxPktsPerEvt                         
20004c85  maxTxPwrForDTM                        
0001b2f9  memcmp                                
00018d19  memcpy                                
00018dbd  memset                                
20004f14  mstCmd                                
20004f18  mstParam                              
20004cba  numComplPkts                          
20004c88  numComplPktsFlush                     
20004c87  numComplPktsLimit                     
20004f26  numHostBufs                           
20004c8b  numTxDataBufs                         
20004c86  onePktPerEvt                          
0001919f  osalAddTimer                          
0001bd5d  osalAdjustTimer                       
000191e3  osalDeleteTimer                       
00019185  osalFindTimer                         
0001be91  osalInitTasks                         
000193fb  osalTimerInit                         
0001922d  osalTimerUpdate                       
0001ad2f  osal_CbTimerInit                      
0001aca5  osal_CbTimerProcessEvent              
0001ae23  osal_CbTimerStart                     
0001ad47  osal_CbTimerStop                      
000195b1  osal_bm_adjust_header                 
000195d9  osal_bm_alloc                         
0001960b  osal_bm_free                          
00019d73  osal_buffer_uint32                    
00019d45  osal_build_uint32                     
0001998d  osal_clear_event                      
00019a8d  osal_enroll_dispatchid                
00019a99  osal_enroll_senderid                  
20004751  osal_entity                           
2000475c  osal_eventloop_hook                   
000191eb  osal_get_timeoutEx                    
00019add  osal_init_system                      
000196dd  osal_isbufset                         
20004470  osal_last_timestamp                   
20004768  osal_max_msecs                        
0001bdaf  osal_mem_alloc                        
0001bdb3  osal_mem_free                         
000196f7  osal_memcmp                           
00019665  osal_memcpy                           
00019d29  osal_memdup                           
00019661  osal_memset                           
0001967d  osal_msg_allocate                     
000196a7  osal_msg_deallocate                   
000197c7  osal_msg_enqueue                      
00019717  osal_msg_extract                      
000197f7  osal_msg_push                         
0001974b  osal_msg_receive                      
0001986f  osal_msg_send                         
0001940b  osal_next_timeout                     
0001bd0f  osal_pwrmgr_init                      
0001bca5  osal_pwrmgr_task_state                
20004758  osal_qHead                            
00019581  osal_rand                             
000197ab  osal_revmemcpy                        
00019be1  osal_run_system                       
000196a1  osal_self                             
20004760  osal_semaphore                        
00019a47  osal_service_entry                    
000198f5  osal_set_event                        
0001b279  osal_snv_compact                      
0001b2e9  osal_snv_init                         
0001aebf  osal_snv_read                         
0001b223  osal_snv_write                        
000193c5  osal_start_reload_timer               
00019cff  osal_start_system                     
0001935b  osal_start_timerEx                    
00019395  osal_stop_timerEx                     
00019d1b  osal_strlen                           
20004764  osal_tickperiod                       
0001930f  osal_timer_refTimeUpdate              
20004f60  outPointX                             
20004f64  outPointY                             
20004c6c  ownPublicAddr                         
20004c74  ownRandomAddr                         
20004c7c  ownSavedPublicAddr                    
20004520  pAuthLink                             
20004410  pBleEvtMask                           
2000451c  pEstLink                              
20004350  pGapAdvertState                       
2000434c  pGapDiscReq                           
20004f00  pHciEvtMask                           
20004418  pHciEvtMask2                          
20004404  pPairingParams                        
20004ffc  pSspAesEncrypt_Sw                     
20004c9c  peerInfo                              
0001123c  periConnParamUUID                     
00011234  periPrivacyFlagUUID                   
2000435c  pfnBondMgrCBs                         
20004524  pfnCentralConnCBs                     
2000454c  pfnPeripheralCBs                      
20004358  pfnPeripheralConnCBs                  
20004408  pfnResponderCBs                       
20004cbe  postRfOperations                      
00011204  primaryServiceUUID                    
200047fe  pwrmgr_attribute                      
200047fc  pwrmgr_initialized                    
20004fac  ratChanInfo                           
00011238  reconnectAddrUUID                     
0001124c  reportRefUUID                         
20004557  reqTaskId                             
00018831  rfCallback                            
20004c94  rfCfgAdiVal                           
0001cb58  rfCfgVal                              
20004658  rfCmdHandle                           
20004660  rfDrvTblPtr                           
20004420  rfEvent                               
20004651  rfFeModeBias                          
2000465c  rfHandle                              
20004674  rfMode                                
200046b0  rfObject                              
0001cb74  rfOpLoc                               
00018825  rfPUpCallback                         
20004684  rfParams                              
20004698  rfSetup                               
1000dffc  romRev                                
20004431  rspBuf                                
20004cc0  rssiCorrection                        
20004f0c  rxDataQ                               
20004c8a  rxFifoFlowCtrl                        
20004e40  rxModemTestCmd                        
0001cb5c  rxPktSuffix                           
20004f10  rxRingBuf                             
20004ec4  rxTestOut                             
20004e84  rxTestParam                           
20004df8  scanCmd                               
200048fc  scanDataEntry                         
200049dc  scanDataQueue                         
20004d94  scanInfo                              
20004e10  scanOutput                            
20004d14  scanParam                             
0001cb64  scanPktSuffix                         
20004670  sclkSrc                               
00011208  secondaryServiceUUID                  
0000f139  sendEstLinkEvent                      
00011220  servCharCfgUUID                       
20004364  serverInfoTbl                         
00011240  serviceChangedUUID                    
0001bdd5  setBleUserConfig                      
20004c89  slOverride                            
20004518  slaveConnHandle                       
20004510  slaveUpdateReq                        
20004c96  sleepDelay                            
20004de0  slvCmd                                
20004d38  slvParam                              
00013277  smAuthReqToUint8                      
00013d71  smDetermineKeySize                    
00013d41  smEndPairing                          
00013ab3  smGenerateConfirm                     
00013a87  smGeneratePairingReqRsp               
0001324d  smGenerateRandBuf                     
00013acb  smGenerateRandMsg                     
00013781  smLinkCheck                           
00013949  smNextPairingState                    
00013c95  smPairingSendEncInfo                  
00013ccd  smPairingSendIdentityAddrInfo         
00013cc3  smPairingSendIdentityInfo             
00013c9b  smPairingSendMasterID                 
00013cf1  smPairingSendSigningInfo              
000137a9  smProcessDataMsg                      
00013899  smProcessEncryptChange                
00013a17  smProcessPairingReq                   
00013771  smRegisterInitiator                   
00013779  smRegisterResponder                   
00013af5  smSavePairInfo                        
0001387d  smSendFailAndEnd                      
00013e01  smSendFailureEvt                      
000147f3  smSendSMMsg                           
00013a6d  smStartEncryption                     
00013091  smStartRspTimer                       
000130ad  smStopRspTimer                        
200043c9  smTaskID                              
000137a3  smTimedOut                            
000132a5  smUint8ToAuthReq                      
00013979  sm_c1                                 
0001313f  sm_c1new                              
000130bd  sm_d1                                 
00013115  sm_dm                                 
0001320d  sm_s1                                 
000146c1  smpBuildEncInfo                       
00014743  smpBuildIdentityAddrInfo              
00014731  smpBuildIdentityInfo                  
000146e9  smpBuildMasterID                      
0001462b  smpBuildPairingConfirm                
0001468b  smpBuildPairingFailed                 
00014653  smpBuildPairingRandom                 
000144a1  smpBuildPairingReq                    
000144af  smpBuildPairingReqRsp                 
000144a9  smpBuildPairingRsp                    
000147bb  smpBuildSecurityReq                   
00014793  smpBuildSigningInfo                   
000146d3  smpParseEncInfo                       
00014777  smpParseIdentityAddrInfo              
00014761  smpParseIdentityInfo                  
0001470d  smpParseMasterID                      
0001463d  smpParsePairingConfirm                
000146a3  smpParsePairingFailed                 
00014675  smpParsePairingRandom                 
00014557  smpParsePairingReq                    
000147d7  smpParseSecurityReq                   
000147a5  smpParseSigningInfo                   
10016d29  sspAesDecrypt_Sw                      
10016af5  sspAesEncryptBasic_Sw                 
10016a99  sspAesEncryptKeyExp_Sw                
10016979  sspAesEncrypt_Sw                      
10016985  sspKeyExpansion_Sw                    
10016975  ssp_KeyInit_Sw                        
0001bf0d  stack_main                            
0000e001  startup_entry                         
0001bf5d  strlen                                
000155c8  supportedCmdsTable                    
20004cc4  taskEndAction                         
20004f0a  taskEndStatus                         
0001c444  tasksArr                              
20004488  tasksEvents                           
2000446c  timerHead                             
20004668  trngDrvTblPtr                         
20004e28  trxTestCmd                            
20004f1c  txDataQ                               
20004d78  txModemTestCmd                        
0001cb4c  txPowerTable                          
0001cb50  txPwrTbl                              
20004f20  txTestOut                             
20004ea8  txTestParam                           
00011244  validRangeUUID                        
20004c8c  verInfo                               
20004f40  win                                   
0001cb6c  wlSize                                
20004a8c  wlTable                               
20004b10  wlTableScan                           
20004f44  workzone                              
10015d19  zADD                                  
10015eb5  zADD32                                
10015de9  zMACC32                               
10015f0d  zMULT32                               
10015bcd  zSET                                  
10015d5d  zSUB                                  
10015e69  zSUB32                                


GLOBAL SYMBOLS: SORTED BY Symbol Address 

address   name                                  
-------   ----                                  
00005721  __checksum_value                      
0000e000  __TI_static_base__                    
0000e001  startup_entry                         
0000e04d  ATT_RegisterServer                    
0000e053  ATT_ErrorRsp                          
0000e065  ATT_ExchangeMTURsp                    
0000e07d  ATT_FindInfoRsp                       
0000e0ad  ATT_FindByTypeValueRsp                
0000e0cd  ATT_ReadByTypeRsp                     
0000e0ea  __checksum_value_CommonROM            
0000e0f9  ATT_ReadRsp                           
0000e115  ATT_ReadBlobRsp                       
0000e131  ATT_ReadMultiRsp                      
0000e14f  ATT_ReadByGrpTypeRsp                  
0000e171  ATT_WriteRsp                          
0000e17d  ATT_PrepareWriteRsp                   
0000e197  ATT_ExecuteWriteRsp                   
0000e1a3  ATT_HandleValueNoti                   
0000e1b9  ATT_HandleValueInd                    
0000e239  ATT_ParsePacket                       
0000e293  ATT_BuildErrorRsp                     
0000e2a5  ATT_ParseErrorRsp                     
0000e2c3  ATT_BuildExchangeMTUReq               
0000e2c5  ATT_ParseExchangeMTUReq               
0000e2cf  ATT_BuildExchangeMTURsp               
0000e2df  ATT_ParseExchangeMTURsp               
0000e2f5  ATT_BuildFindInfoReq                  
0000e2f7  ATT_ParseFindInfoReq                  
0000e301  ATT_BuildFindInfoRsp                  
0000e319  ATT_ParseFindInfoRsp                  
0000e35d  ATT_BuildFindByTypeValueReq           
0000e377  ATT_ParseFindByTypeValueReq           
0000e3b9  ATT_BuildFindByTypeValueRsp           
0000e3c1  ATT_ParseFindByTypeValueRsp           
0000e3db  ATT_BuildReadByTypeReq                
0000e40b  ATT_ParseReadByTypeReq                
0000e447  ATT_BuildReadByTypeRsp                
0000e449  ATT_ParseReadByTypeRsp                
0000e46b  ATT_BuildReadReq                      
0000e46d  ATT_ParseReadReq                      
0000e487  ATT_BuildReadRsp                      
0000e48b  ATT_ParseReadRsp                      
0000e48d  ATT_ParseWriteReq                     
0000e4b7  ATT_BuildWriteReq                     
0000e4b9  ATT_ParseWriteRsp                     
0000e4c3  ATT_BuildReadBlobReq                  
0000e4dd  ATT_ParseReadBlobReq                  
0000e501  ATT_BuildReadBlobRsp                  
0000e505  ATT_ParseReadBlobRsp                  
0000e513  ATT_BuildReadMultiReq                 
0000e51b  ATT_ParseReadMultiReq                 
0000e53b  ATT_BuildReadMultiRsp                 
0000e53f  ATT_ParseReadMultiRsp                 
0000e541  ATT_BuildReadByGrpTypeRsp             
0000e553  ATT_ParseReadByGrpTypeRsp             
0000e57f  ATT_BuildPrepareWriteReq              
0000e581  ATT_ParsePrepareWriteReq              
0000e5a9  ATT_BuildPrepareWriteRsp              
0000e5c7  ATT_ParsePrepareWriteRsp              
0000e5f9  ATT_BuildExecuteWriteReq              
0000e601  ATT_ParseExecuteWriteReq              
0000e613  ATT_ParseExecuteWriteRsp              
0000e61d  ATT_BuildHandleValueInd               
0000e631  ATT_ParseHandleValueInd               
0000e65d  ATT_ParseHandleValueCfm               
0000e667  attSendMsg                            
0000e6ed  ATT_CompareUUID                       
0000e73d  ATT_ConvertUUIDto128                  
0000e765  ATT_ConvertUUIDto16                   
0000e7a3  ATT_UpdateMTU                         
0000e7cd  ATT_GetMTU                            
0000e7ed  ATT_SetParamValue                     
0000e7ef  ATT_GetParamValue                     
0000e7f4  btBaseUUID                            
0000e805  GAP_SetParamValue                     
0000e81f  GAP_GetParamValue                     
0000e831  GAP_ParamsInit                        
0000e859  GAP_SecParamsInit                     
0000e873  GAP_PrivacyInit                       
0000e895  GAP_GetIRK                            
0000e89b  GAP_ConfigDeviceAddr                  
0000e971  gapReadBD_ADDRStatus                  
0000e9ad  gapReadBufSizeCmdStatus               
0000e9f1  gapProcessNewAddr                     
0000ea1f  gapAddAddrAdj                         
0000ea43  gapHost2CtrlOwnAddrType               
0000ea4d  gapProcessRandomAddrComplete          
0000eaad  gapGetSRK                             
0000eab3  gapGetSignCounter                     
0000eabb  gapIncSignCounter                     
0000ead5  gapGetDevAddressMode                  
0000eadb  gapGetDevAddress                      
0000eb4d  GAP_ResolvePrivateAddr                
0000eb51  gapIsAdvertising                      
0000eb55  gapIsScanning                         
0000eb5f  gapValidADType                        
0000eb73  gapFindADType                         
0000ebc7  gapSetState                           
0000ebd1  gapClrState                           
0000ebfd  GAP_TerminateLinkReq                  
0000ec77  GAP_UpdateLinkParamReq                
0000ecdf  GAP_UpdateLinkParamReqReply           
0000ed71  GAP_Signable                          
0000edb9  GAP_Authenticate                      
0000ee55  GAP_TerminateAuth                     
0000ee73  GAP_PasskeyUpdate                     
0000eea7  GAP_PasscodeUpdate                    
0000eef3  GAP_Bond                              
0000ef69  gapUpdateConnSignCounter              
0000efbb  gapSendSlaveSecurityReqEvent          
0000effd  gapProcessConnectionCompleteEvt       
0000f0ab  gapProcessRemoteConnParamReqEvt       
0000f0d7  gapProcessDisconnectCompleteEvt       
0000f139  sendEstLinkEvent                      
0000f1bd  gapSendLinkUpdateEvent                
0000f331  gapFreeEstLink                        
0000f34d  gapSendBondCompleteEvent              
0000f39f  gapSendPairingReqEvent                
0000f3f9  gapPasskeyNeededCB                    
0000f461  gapPairingCompleteCB                  
0000f591  gapRegisterPeripheralConn             
0000f5b5  GAP_MakeDiscoverable                  
0000f647  GAP_UpdateAdvertisingData             
0000f6af  GAP_EndDiscoverable                   
0000f6fb  GAP_SetAdvToken                       
0000f7a5  GAP_GetAdvToken                       
0000f7bb  GAP_RemoveAdvToken                    
0000f805  GAP_UpdateAdvTokens                   
0000f819  GAP_PeriDevMgrInit                    
0000fbd9  GAP_SendSlaveSecurityRequest          
0000fc13  GAP_PeriConnRegister                  
0000fce9  GAP_RegisterForMsgs                   
0000fcef  GAP_Init                              
0000fd05  GAP_ProcessEvent                      
0000fdcd  GAP_NumActiveConnections              
0000ffa1  gapRegisterCentral                    
0000ffa7  gapRegisterPeripheral                 
0000ffad  GAP_RegisterBondMgrCBs                
0000ffd5  GGS_SetParameter                      
00010055  GGS_GetParameter                      
0001008b  GGS_SetParamValue                     
0001008d  GGS_GetParamValue                     
00010091  GGS_AddService                        
000100a9  GGS_DelService                        
000100bd  GGS_RegisterAppCBs                    
000102f4  gapServiceCBs                         
00010301  GATT_InitServer                       
00010369  GATT_RegisterService                  
00010405  GATT_DeregisterService                
00010445  GATT_RegisterForReq                   
0001044d  GATT_VerifyReadPermissions            
00010483  GATT_VerifyWritePermissions           
000104d7  GATT_ServiceChangedInd                
00010549  GATT_FindHandleUUID                   
000105a7  GATT_FindHandle                       
000105f3  GATT_FindNextAttr                     
00010677  GATT_ServiceNumAttrs                  
00010683  GATT_ServiceEncKeySize                
00010693  GATT_SendRsp                          
00010747  GATT_Indication                       
000107b3  GATT_Notification                     
00010da5  GATT_GetNextHandle                    
00010e15  GATT_SetNextHandle                    
00010e19  gattRegisterServer                    
00010e1f  gattRegisterClient                    
00010e25  GATT_RegisterForMsgs                  
00010e2b  GATT_SetHostToAppFlowCtrl             
00010e37  GATT_AppCompletedMsg                  
00010e5f  GATT_Init                             
00010e7d  GATT_ProcessEvent                     
00010f4b  gattNotifyEvent                       
00010fa1  gattStartTimer                        
00010fb1  gattStopTimer                         
00010fc9  GATT_NotifyEvent                      
00010fdd  GATT_UpdateMTU                        
00011003  gattSendFlowCtrlEvt                   
00011031  gattGetPayload                        
00011085  GATT_bm_alloc                         
000110fd  GATT_bm_free                          
00011111  GATT_FindUUIDRec                      
000111fc  gapServiceUUID                        
00011200  gattServiceUUID                       
00011204  primaryServiceUUID                    
00011208  secondaryServiceUUID                  
0001120c  includeUUID                           
00011210  characterUUID                         
00011214  charExtPropsUUID                      
00011218  charUserDescUUID                      
0001121c  clientCharCfgUUID                     
00011220  servCharCfgUUID                       
00011224  charFormatUUID                        
00011228  charAggFormatUUID                     
0001122c  deviceNameUUID                        
00011230  appearanceUUID                        
00011234  periPrivacyFlagUUID                   
00011238  reconnectAddrUUID                     
0001123c  periConnParamUUID                     
00011240  serviceChangedUUID                    
00011244  validRangeUUID                        
00011248  extReportRefUUID                      
0001124c  reportRefUUID                         
00011251  GATTServApp_RegisterForMsg            
00011259  GATTServApp_Init                      
000112a7  GATTServApp_ProcessEvent              
000112e5  GATTServApp_RegisterService           
0001133b  GATTServApp_DeregisterService         
0001137f  GATTServApp_SetParameter              
000113dd  GATTServApp_GetParameter              
00011497  GATTServApp_AddService                
000114ad  GATTServApp_DelService                
00011ee1  GATTServApp_ReadAttr                  
000120d9  GATTServApp_WriteAttr                 
00012161  GATTServApp_SetParamValue             
00012163  GATTServApp_GetParamValue             
00012167  GATTServApp_UpdateCharCfg             
000121d9  GATTServApp_SendCCCUpdatedEvent       
0001221d  L2CAP_RegisterApp                     
00012247  L2CAP_SendData                        
000122a9  L2CAP_CmdReject                       
000122b7  L2CAP_InfoReq                         
000122cf  L2CAP_ConnParamUpdateReq              
00012305  L2CAP_ConnParamUpdateRsp              
00012317  L2CAP_SetControllerToHostFlowCtrl     
00012351  L2CAP_HostNumCompletedPkts            
00012367  L2CAP_SetBufSize                      
00012373  L2CAP_GetMTU                          
00012399  L2CAP_SetUserConfig                   
0001239d  L2CAP_Init                            
000123ff  L2CAP_ProcessEvent                    
0001250d  L2CAP_RegisterFlowCtrlTask            
0001264d  l2capParseSignalHdr                   
00012661  l2capSendReq                          
000126c5  l2capSendCmd                          
00012735  l2capStoreFCPkt                       
0001275b  l2capSendPkt                          
000127c9  l2capEncapSendData                    
00012873  l2capParsePacket                      
000128c9  L2CAP_BuildCmdReject                  
00012907  l2capParseCmdReject                   
00012947  l2capBuildParamUpdateReq              
00012973  L2CAP_ParseParamUpdateReq             
000129ad  L2CAP_BuildParamUpdateRsp             
000129af  l2capParseParamUpdateRsp              
000129b9  l2capBuildInfoReq                     
000129c9  L2CAP_ParseInfoReq                    
000129e1  L2CAP_BuildInfoRsp                    
00012a27  l2capParseInfoRsp                     
00012a87  l2capNotifyData                       
00012acb  l2capNotifySignal                     
00012b19  l2capAllocConnChannel                 
00012b6b  l2capFreeChannel                      
00012b79  l2capFindLocalId                      
00012ba3  l2capStartTimer                       
00012bb7  l2capStopTimer                        
00012c13  l2capHandleRxError                    
00012c15  l2capDisconnectAllChannels            
00012cb9  L2CAP_bm_alloc                        
00012cd3  L2CAP_SetParamValue                   
00012cd5  L2CAP_GetParamValue                   
00012cd9  linkDB_Init                           
00012d27  linkDB_Register                       
00012d45  linkDB_Add                            
00012dab  linkDB_Remove                         
00012ddf  linkDB_Update                         
00012e07  linkDB_GetInfo                        
00012e47  linkDB_Find                           
00012e71  linkDB_FindFirst                      
00012ea3  linkDB_State                          
00012ec5  linkDB_Role                           
00012ed1  linkDB_NumActive                      
00012ef9  linkDB_NumConns                       
00012eff  linkDB_UpdateMTU                      
00012f1b  linkDB_MTU                            
00012f27  linkDB_Authen                         
00012f73  linkDB_PerformFunc                    
00012f9f  linkDB_reportStatusChange             
00012fc5  SM_CalcRandomAddr                     
00012ffd  SM_ResolveRandomAddrs                 
00013053  SM_Encrypt                            
00013091  smStartRspTimer                       
000130ad  smStopRspTimer                        
000130bd  sm_d1                                 
00013115  sm_dm                                 
0001313f  sm_c1new                              
0001320d  sm_s1                                 
0001324d  smGenerateRandBuf                     
00013277  smAuthReqToUint8                      
000132a5  smUint8ToAuthReq                      
000132ed  SM_GenerateAuthenSig                  
00013387  SM_VerifyAuthenSig                    
00013654  const_Rb                              
00013665  SM_StartPairing                       
000136f3  SM_PasskeyUpdate                      
00013771  smRegisterInitiator                   
00013779  smRegisterResponder                   
00013781  smLinkCheck                           
000137a3  smTimedOut                            
000137a9  smProcessDataMsg                      
0001387d  smSendFailAndEnd                      
00013899  smProcessEncryptChange                
00013949  smNextPairingState                    
00013979  sm_c1                                 
00013a17  smProcessPairingReq                   
00013a6d  smStartEncryption                     
00013a87  smGeneratePairingReqRsp               
00013ab3  smGenerateConfirm                     
00013acb  smGenerateRandMsg                     
00013af5  smSavePairInfo                        
00013c95  smPairingSendEncInfo                  
00013c9b  smPairingSendMasterID                 
00013cc3  smPairingSendIdentityInfo             
00013ccd  smPairingSendIdentityAddrInfo         
00013cf1  smPairingSendSigningInfo              
00013d41  smEndPairing                          
00013d71  smDetermineKeySize                    
00013e01  smSendFailureEvt                      
00013e49  SM_ResponderInit                      
000143b9  SM_Init                               
000143d5  SM_ProcessEvent                       
000144a1  smpBuildPairingReq                    
000144a9  smpBuildPairingRsp                    
000144af  smpBuildPairingReqRsp                 
00014557  smpParsePairingReq                    
0001462b  smpBuildPairingConfirm                
0001463d  smpParsePairingConfirm                
00014653  smpBuildPairingRandom                 
00014675  smpParsePairingRandom                 
0001468b  smpBuildPairingFailed                 
000146a3  smpParsePairingFailed                 
000146c1  smpBuildEncInfo                       
000146d3  smpParseEncInfo                       
000146e9  smpBuildMasterID                      
0001470d  smpParseMasterID                      
00014731  smpBuildIdentityInfo                  
00014743  smpBuildIdentityAddrInfo              
00014761  smpParseIdentityInfo                  
00014777  smpParseIdentityAddrInfo              
00014793  smpBuildSigningInfo                   
000147a5  smpParseSigningInfo                   
000147bb  smpBuildSecurityReq                   
000147d7  smpParseSecurityReq                   
000147f3  smSendSMMsg                           
0001483d  llProcessSlaveControlPacket           
00014ad9  llSetupConnRxDataEntryQueue           
00014b5f  llCreateRxBuffer                      
00014b8d  llCheckRxBuffers                      
00014bb3  llReplaceRxBuffers                    
00014be5  llSetupRfHal                          
00014bff  llSetupRATChanCompare                 
00014c31  llRatChanCBack_A                      
00014c33  RFHAL_InitRfHal                       
00014c97  RFHAL_AddTxDataEntry                  
00014d31  LL_RxDataCompleteCback                
00014dd9  hciInitEventMasks                     
00014e1d  LL_ConnParamUpdateCback               
00014eaf  LL_ReadRemoteUsedFeaturesCompleteCback
00014f1b  HCI_NumOfCompletedPacketsEvent        
00014ffb  LL_AuthPayloadTimeoutExpiredCback     
0001506f  LL_EnhancedConnectionCompleteCback    
00015289  HCI_VendorSpecifcCommandCompleteEvent 
00015305  HCI_ValidConnTimeParams               
00015341  HCI_ResetCmd                          
00015363  HCI_ReadLocalSupportedCommandsCmd     
00015377  HCI_EXT_GetConnInfoCmd                
00015405  HCI_LE_ReadBufSizeCmd                 
00015433  HCI_LE_RemoteConnParamReqReplyCmd     
00015437  HCI_LE_RemoteConnParamReqNegReplyCmd  
0001543b  HCI_LE_ReadRemoteUsedFeaturesCmd      
00015465  HCI_LE_TransmitterTestCmd             
00015477  HCI_LE_ReceiverTestCmd                
00015489  HCI_SetEventMaskPage2Cmd              
000154b1  HCI_LE_ConnUpdateCmd                  
000154c1  HCI_EXT_ResetSystemCmd                
000154e7  HCI_EXT_DelaySleepCmd                 
0001550b  HCI_EXT_ConnEventNoticeCmd            
0001550f  HCI_LE_SetEventMaskCmd                
00015545  HCI_ReadLocalVersionInfoCmd           
0001559d  HCI_ReadRssiCmd                       
000155c8  supportedCmdsTable                    
0001560d  llDirAdv_TaskEnd                      
0001566f  llAdv_TaskEnd                         
00015733  llAdv_TaskConnect                     
00015a35  llVerifyConnParamReqParams            
00015ab7  llAllocConnId                         
00015bf5  llInitFeatureSet                      
00015c0d  llSetupFeatureSetRsp                  
00015c6f  llSetupStartEncReq                    
00015cb1  llProcessTxData                       
00015d1b  llConnCleanup                         
00015df5  llDequeueCtrlPkt                      
00015e31  llReplaceCtrlPkt                      
00015e5d  llGetNextConn                         
00015ead  llGetMinCI                            
00015f19  llFragmentPDU                         
00015f7b  llCombinePDU                          
000160a9  llAlignToNextEvent                    
00016155  llRfSetup                             
0001619d  llRfInit                              
0001620b  llSetTxPower                          
00016255  llGetTxPower                          
00016269  llCheckWhiteListUsage                 
0001627d  llProcessChanMap                      
000162bd  llGetNextDataChan                     
00016309  llSetNextDataChan                     
00016357  llSendReject                          
00016375  llSetupTermInd                        
000163e7  llWriteTxData                         
00016463  llTime2Octets                         
00016491  llOctets2Time                         
000164c5  llHaltRadio                           
000164e5  llRfStartFS                           
000165cd  llResetRadio                          
000165cf  llHardwareError                       
000165d3  llValidateConnParams                  
00016669  LL_ENC_Encrypt                        
000166d7  LL_ENC_Decrypt                        
00016e19  LL_Init                               
0001707f  LL_ProcessEvent                       
000171a7  LL_Reset                              
000172a1  LL_EXT_GetConnInfo                    
0001734d  LL_EncLtkReply                        
00017393  LL_EncLtkNegReply                     
000173cf  LL_ReadRemoteUsedFeatures             
0001741f  LL_EXT_SetLocalSupportedFeatures      
00017451  LL_EXT_SetTxPower                     
00017485  LL_EXT_SetMaxDtmTxPower               
000174a1  LL_ReadTxPowerLevel                   
000174df  LL_TxData                             
00017599  LL_EXT_ModemHopTestTx                 
00017633  LL_EXT_ModemTestTx                    
000176b7  LL_EXT_ModemTestRx                    
00017755  LL_EXT_EndModemTest                   
0001777b  LL_DirectTestTxTest                   
000178f5  LL_DirectTestRxTest                   
000179f5  LL_DirectTestEnd                      
00017a8d  LL_SetAdvParam                        
00017b9d  LL_SetAdvControl                      
00017c9f  LL_ReadSupportedStates                
00017cbb  LL_GetNumActiveConns                  
00017cc7  LL_ReadRssi                           
00017d29  LL_EXT_ConnEventNotice                
00017d5d  LL_EXT_NumComplPktsLimit              
00017d85  LL_EXT_BuildRevision                  
00017dbd  LL_EXT_DisconnectImmed                
00017e79  llInitRAT                             
00017e7b  llGetCurrentTime                      
00017e89  llSchedulerInit                       
00017ebb  llAllocTask                           
00017f15  llGetTaskState                        
00017f37  llActiveTask                          
00017f6d  llGetTask                             
00017f9d  llScheduleTask                        
00018031  llSlave_TaskEnd                       
00018203  llSetupNextSlaveEvent                 
000184a1  llProcessSlaveControlProcedures       
00018731  LL_PM_GetRfCoreState                  
00018735  LL_PM_Enter_AES                       
0001874b  LL_PM_Exit_AES                        
00018775  LL_PM_PowerOffRfCore                  
00018777  WL_Clear                              
0001879b  WL_GetNumFreeEntries                  
000187a5  WL_FindEntry                          
000187e7  WL_SetWlIgnore                        
00018807  WL_ClearIgnoreList                    
00018825  rfPUpCallback                         
00018831  rfCallback                            
0001885b  LL_DoorbellErrorCback                 
0001886d  LL_LastCmdDoneCback                   
00018a21  LL_TxDoneCback                        
00018a35  LL_TxEntryDoneCback                   
00018a4f  LL_RxIgnoredCback                     
00018a51  LL_RxEntryDoneCback                   
00018bed  HCI_Init                              
00018c1f  HCI_ProcessEvent                      
00018c5b  HCI_TestAppTaskRegister               
00018c61  HCI_GAPTaskRegister                   
00018c67  HCI_L2CAPTaskRegister                 
00018c6d  HCI_SMPTaskRegister                   
00018c73  HCI_ExtTaskRegister                   
00018c95  __TI_auto_init                        
00018d01  __aeabi_lmul                          
00018d19  __aeabi_memcpy                        
00018d19  __aeabi_memcpy4                       
00018d19  __aeabi_memcpy8                       
00018d19  memcpy                                
00018db5  __aeabi_memclr                        
00018db5  __aeabi_memclr4                       
00018db5  __aeabi_memclr8                       
00018db7  __aeabi_memset                        
00018db7  __aeabi_memset4                       
00018db7  __aeabi_memset8                       
00018dbd  memset                                
00018e2f  __aeabi_uldivmod                      
00019023  NOROM_CPUcpsie                        
0001902f  NOROM_CPUcpsid                        
0001903d  NOROM_FlashSectorErase                
00019059  NOROM_FlashProgram                    
00019075  NOROM_IntEnable                       
000190e5  NOROM_IntDisable                      
00019141  NOROM_TRNGConfigure                   
00019175  NOROM_VIMSModeGet                     
00019185  osalFindTimer                         
0001919f  osalAddTimer                          
000191e3  osalDeleteTimer                       
000191eb  osal_get_timeoutEx                    
0001922d  osalTimerUpdate                       
0001930f  osal_timer_refTimeUpdate              
0001935b  osal_start_timerEx                    
00019395  osal_stop_timerEx                     
000193c5  osal_start_reload_timer               
000193fb  osalTimerInit                         
0001940b  osal_next_timeout                     
0001944d  ROM_Spinlock                          
00019483  CommonROM_Init                        
000194a3  ROM_Init                              
000194e1  HalTRNG_InitTRNG                      
00019503  HalTRNG_GetTRNG                       
00019549  halAssertHandler                      
0001954b  halAssertSpinlock                     
0001954d  halAssertHandlerExt                   
00019563  halAssertInit                         
0001957d  Onboard_soft_reset                    
0001957f  appForceBoot                          
00019581  Onboard_rand                          
00019581  osal_rand                             
000195b1  osal_bm_adjust_header                 
000195d9  osal_bm_alloc                         
0001960b  osal_bm_free                          
00019661  osal_memset                           
00019665  osal_memcpy                           
0001967d  osal_msg_allocate                     
000196a1  osal_self                             
000196a7  osal_msg_deallocate                   
000196dd  osal_isbufset                         
000196f7  osal_memcmp                           
00019717  osal_msg_extract                      
0001974b  osal_msg_receive                      
000197ab  osal_revmemcpy                        
000197c7  osal_msg_enqueue                      
000197f7  osal_msg_push                         
0001986f  osal_msg_send                         
000198f5  osal_set_event                        
0001998d  osal_clear_event                      
00019a47  osal_service_entry                    
00019a8d  osal_enroll_dispatchid                
00019a99  osal_enroll_senderid                  
00019add  osal_init_system                      
00019be1  osal_run_system                       
00019cff  osal_start_system                     
00019d1b  osal_strlen                           
00019d29  osal_memdup                           
00019d45  osal_build_uint32                     
00019d73  osal_buffer_uint32                    
00019e81  GAPBondMgr_ResolveAddr                
00019fcb  GAPBondMgr_UpdateCharCfg              
0001a4d1  GAPBondMgr_LinkTerm                   
0001a525  GAPBondMgr_ProcessGAPMsg              
0001a6f9  GAPBondMgr_ProcessEvent               
0001a837  GAPBondMgr_LinkEst                    
0001a907  GAPBondMgr_PasscodeRsp                
0001a933  GAPBondMgr_Register                   
0001a949  GAPBondMgr_CheckNVLen                 
0001a987  GAPBondMgr_GetParameter               
0001aa55  GAPBondMgr_SetParameter               
0001ac0f  GAPBondMgr_Init                       
0001ac4d  HalFlashGetAddress                    
0001ac67  HalFlashRead                          
0001ac93  HalFlashWrite                         
0001aca5  osal_CbTimerProcessEvent              
0001ad2f  osal_CbTimerInit                      
0001ad47  osal_CbTimerStop                      
0001ae23  osal_CbTimerStart                     
0001ae97  NVOCOP_readItem                       
0001aebf  osal_snv_read                         
0001b18d  NVOCOP_writeItem                      
0001b223  osal_snv_write                        
0001b241  NVOCOP_compactNV                      
0001b279  osal_snv_compact                      
0001b2ad  NVOCOP_initNV                         
0001b2e9  osal_snv_init                         
0001b2f9  memcmp                                
0001bb8f  bleDispatch_ProcessEvent              
0001bbef  bleDispatch_BMAlloc                   
0001bc1b  bleDispatch_BMFree                    
0001bc33  bleDispatch_Init                      
0001bc45  GAP_DeviceInit                        
0001bca5  osal_pwrmgr_task_state                
0001bd0f  osal_pwrmgr_init                      
0001bd5d  osalAdjustTimer                       
0001bdaf  osal_mem_alloc                        
0001bdb3  osal_mem_free                         
0001bdd5  setBleUserConfig                      
0001be91  osalInitTasks                         
0001bf0d  stack_main                            
0001bf5d  strlen                                
0001bf71  copy_in                               
0001bfbd  __TI_zero_init                        
0001c033  __TI_decompress_rle24                 
0001c039  __TI_decompress_none                  
0001c06b  GATTServApp_ReadCharCfg               
0001c07b  GATTServApp_InitCharCfg               
0001c444  tasksArr                              
0001c46c  R2F_Flash_JT_CommonROM                
0001c484  R2F_Flash_JT                          
0001c52c  R2R_Flash_JT_CommonROM                
0001c620  R2R_Flash_JT                          
0001cb4c  txPowerTable                          
0001cb50  txPwrTbl                              
0001cb58  rfCfgVal                              
0001cb5c  rxPktSuffix                           
0001cb60  advPktSuffix                          
0001cb64  scanPktSuffix                         
0001cb68  initPktSuffix                         
0001cb6c  wlSize                                
0001cb70  maxPktsPerEvt                         
0001cb74  rfOpLoc                               
0001cb78  llConfigTable                         
0001cba8  ll_buildRevision                      
0001cbb0  __TI_Handler_Table_Base               
0001cbbc  __TI_CINIT_Base                       
0001cbbc  __TI_Handler_Table_Limit              
0001cbcc  __TI_CINIT_Limit                      
0001e000  NV_FLASH                              
10005000  A1_rw_1                               
10005000  __checksum_begin                      
10005001  ROM_BASE_ADDR                         
10005004  P1_ro_1                               
10005549  LL_TX_bm_alloc                        
1000556d  LL_RX_bm_alloc                        
100056c9  LL_ReadBDADDR                         
100056e9  LL_SetRandomAddress                   
10005719  LL_ClearWhiteList                     
10005739  LL_AddWhiteListDevice                 
10005765  LL_RemoveWhiteListDevice              
100057a1  LL_ReadWlSize                         
100057b9  LL_NumEmptyWlEntries                  
100057d5  LL_Encrypt                            
100057f5  LL_Rand                               
10005801  LL_PseudoRand                         
10005879  LL_ReadLocalSupportedFeatures         
1000589d  LL_ReadLocalVersionInfo               
100058d5  LL_CtrlToHostFlowControl              
100058e9  LL_ReadRemoteVersionInfo              
100059a1  LL_ReadChanMap                        
10005a39  LL_Disconnect                         
10005f89  LL_SetAdvData                         
10006105  LL_ReadAdvChanTxPower                 
1000612d  LL_SetScanRspData                     
1000678d  LL_ConnActive                         
10006ad9  LL_EXT_SetRxGain                      
10006b59  LL_EXT_OnePacketPerEvent              
10006b7d  LL_EXT_ClkDivOnHalt                   
10006b81  LL_EXT_DeclareNvUsage                 
10006b85  LL_EXT_Decrypt                        
10006bc5  LL_EXT_SetFastTxResponseTime          
10006bdd  LL_EXT_SetSlaveLatencyOverride        
10006e01  LL_EXT_SetBDADDR                      
10006e85  LL_EXT_SetSCA                         
10006ef9  LL_EXT_SetFreqTune                    
10006efd  LL_EXT_SaveFreqTune                   
10006f49  LL_EXT_MapPmIoPort                    
10006f99  LL_EXT_PacketErrorRate                
10006fed  LL_EXT_PERbyChan                      
1000701d  LL_EXT_ExtendRfRange                  
10007021  LL_EXT_HaltDuringRf                   
10007025  LL_EXT_AdvEventNotice                 
100070a1  LL_EXT_DelaySleep                     
100070d5  LL_EXT_ResetSystem                    
10007109  LL_EXT_OverlappedProcessing           
100072e1  llSetFreqTune                         
100072e5  llDisableRfInts                       
100072e9  llClearRfInts                         
100072ed  llEnableRfInts                        
100072f1  llProcessPostRfOps                    
100073e5  llSetupAdv                            
100075fd  llSetupScan                           
100077b5  llSetupInit                           
100079c9  llSetupUpdateParamReq                 
10007aed  llSetupEncReq                         
10007b95  llSetupEncRsp                         
10007ca9  llSetupStartEncRsp                    
10007cfd  llSetupPauseEncReq                    
10007d55  llSetupPauseEncRsp                    
10007df5  llSetupRejectInd                      
10007f29  llSetupVersionIndReq                  
10008069  llSetupUnknownRsp                     
100080bd  llEnqueueCtrlPkt                      
100082f1  llAtLeastTwoChans                     
10008429  llReleaseConnId                       
10008461  llReleaseAllConnId                    
10008631  llConnTerminate                       
10008665  llPendingUpdateParam                  
100086b9  llGenerateCRC                         
100086f1  llEventInRange                        
10008719  llEventDelta                          
10008721  llConvertLstoToEvent                  
10008741  llConvertCtrlProcTimeoutToEvent       
10008889  llEnqueueDataQ                        
100088b5  llEnqueueHeadDataQ                    
10008921  llDequeueDataQ                        
10008965  llDataQFull                           
10008985  llDataQEmpty                          
100089d9  llMemCopySrc                          
100089f1  llMemCopyDst                          
10008a2d  HCI_DataBufferOverflowEvent           
10008add  HCI_CommandCompleteEvent              
10008ba1  HCI_CommandStatusEvent                
10008bf5  HCI_HardwareErrorEvent                
10008c59  HCI_SendCommandStatusEvent            
10008c81  HCI_SendCommandCompleteEvent          
10008d31  HCI_SendControllerToHostEvent         
10008d81  LL_AdvReportCback                     
10008ead  LL_ConnectionCompleteCback            
10009005  LL_DisconnectCback                    
100091e1  LL_ReadRemoteVersionInfoCback         
1000925d  LL_EncLtkReqCback                     
1000933d  LL_EncChangeCback                     
100093dd  LL_EncKeyRefreshCback                 
10009471  LL_DirectTestEndDoneCback             
100094a1  HCI_bm_alloc                          
100094e9  HCI_SendDataPkt                       
10009525  HCI_DisconnectCmd                     
10009541  HCI_ReadRemoteVersionInfoCmd          
10009571  HCI_SetEventMaskCmd                   
100095d1  HCI_ReadTransmitPowerLevelCmd         
100095f5  HCI_SetControllerToHostFlowCtrlCmd    
10009631  HCI_HostBufferSizeCmd                 
1000965d  HCI_HostNumCompletedPktCmd            
1000973d  HCI_ReadLocalSupportedFeaturesCmd     
10009765  HCI_ReadBDADDRCmd                     
10009829  HCI_LE_ReadLocalSupportedFeaturesCmd  
10009849  HCI_LE_SetRandomAddressCmd            
1000986d  HCI_LE_SetAdvParamCmd                 
100098a1  HCI_LE_SetAdvDataCmd                  
100098bd  HCI_LE_SetScanRspDataCmd              
100098d9  HCI_LE_SetAdvEnableCmd                
100098f5  HCI_LE_ReadAdvChanTxPowerCmd          
10009915  HCI_LE_SetScanParamCmd                
10009941  HCI_LE_SetScanEnableCmd               
1000995d  HCI_LE_CreateConnCmd                  
1000999d  HCI_LE_CreateConnCancelCmd            
100099c9  HCI_LE_ReadWhiteListSizeCmd           
100099f9  HCI_LE_ClearWhiteListCmd              
10009a15  HCI_LE_AddWhiteListCmd                
10009a31  HCI_LE_RemoveWhiteListCmd             
10009a85  HCI_LE_SetHostChanClassificationCmd   
10009aa1  HCI_LE_ReadChannelMapCmd              
10009af5  HCI_LE_EncryptCmd                     
10009b51  HCI_LE_RandCmd                        
10009ba9  HCI_LE_StartEncyptCmd                 
10009bc5  HCI_LE_LtkReqReplyCmd                 
10009be1  HCI_LE_LtkReqNegReplyCmd              
10009c15  HCI_LE_ReadSupportedStatesCmd         
10009c8d  HCI_LE_TestEndCmd                     
10009cd5  HCI_EXT_SetRxGainCmd                  
10009d09  HCI_EXT_SetTxPowerCmd                 
10009d45  HCI_EXT_OnePktPerEvtCmd               
10009d79  HCI_EXT_ClkDivOnHaltCmd               
10009dad  HCI_EXT_DeclareNvUsageCmd             
10009dd1  HCI_EXT_DecryptCmd                    
10009e2d  HCI_EXT_SetLocalSupportedFeaturesCmd  
10009e4d  HCI_EXT_SetFastTxResponseTimeCmd      
10009e6d  HCI_EXT_SetSlaveLatencyOverrideCmd    
10009e8d  HCI_EXT_ModemTestTxCmd                
10009ead  HCI_EXT_ModemHopTestTxCmd             
10009ecd  HCI_EXT_ModemTestRxCmd                
10009eed  HCI_EXT_EndModemTestCmd               
10009f0d  HCI_EXT_SetBDADDRCmd                  
10009f49  HCI_EXT_SetSCACmd                     
10009f69  HCI_EXT_EnablePTMCmd                  
10009f81  HCI_EXT_SetFreqTuneCmd                
10009fb1  HCI_EXT_SaveFreqTuneCmd               
10009fd1  HCI_EXT_SetMaxDtmTxPowerCmd           
10009ff1  HCI_EXT_MapPmIoPortCmd                
1000a011  HCI_EXT_DisconnectImmedCmd            
1000a031  HCI_EXT_PacketErrorRateCmd            
1000a075  HCI_EXT_PERbyChanCmd                  
1000a095  HCI_EXT_ExtendRfRangeCmd              
1000a0d1  HCI_EXT_HaltDuringRfCmd               
1000a0f1  HCI_EXT_AdvEventNoticeCmd             
1000a109  HCI_EXT_BuildRevisionCmd              
1000a195  HCI_EXT_OverlappedProcessingCmd       
1000a1b5  HCI_EXT_NumComplPktsLimitCmd          
1000a1d5  LL_RandCback                          
1000a201  LL_EXT_SetRxGainCback                 
1000a211  LL_EXT_SetTxPowerCback                
1000a259  LL_EXT_PacketErrorRateCback           
1000a2ad  LL_EXT_ExtendRfRangeCback             
1000a335  llScheduler                           
1000a895  llFindStartType                       
1000a939  llFindNextSecTask                     
1000abed  llFreeTask                            
1000ac3d  llGetCurrentTask                      
1000aca9  llGetActiveTasks                      
1000ace1  llGetNumTasks                         
1000adb1  llPatchCM0                            
1000ae41  llRatChanCBack_B                      
1000ae45  llRatChanCBack_C                      
1000ae49  llRatChanCBack_D                      
1000ae4d  llSetupScanDataEntryQueue             
1000ae95  llSetupInitDataEntryQueue             
1000aeb1  llSetupAdvDataEntryQueue              
1000afa1  llMoveTempTxDataEntries               
1000b009  llGetNumTxDataEntries                 
1000b4c9  LL_ENC_Init                           
1000b4ed  LL_ENC_ReverseBytes                   
1000b50d  LL_ENC_GeneratePseudoRandNum          
1000b51d  LL_ENC_GenerateTrueRandNum            
1000b541  LL_ENC_GenDeviceSKD                   
1000b555  LL_ENC_GenDeviceIV                    
1000b569  LL_ENC_GenerateNonce                  
1000b58d  LL_ENC_LoadKey                        
1000b5f5  LL_ENC_AES128_Encrypt                 
1000b639  LL_ENC_AES128_Decrypt                 
1000b721  LL_ENC_EncryptMsg                     
1000b851  LL_ENC_DecryptMsg                     
1000c1b5  llCheckForLstoDuringSL                
1000cd51  llAdv_TaskAbort                       
1000d189  WL_Init                               
1000d1f5  WL_ClearEntry                         
1000d229  WL_GetSize                            
1000d2d9  WL_AddEntry                           
1000d36d  WL_RemoveEntry                        
1000d4ad  llGetAdvChanPDU                       
1000d695  llGenerateValidAccessAddr             
1000d6b1  llGtSixConsecZerosOrOnes              
1000d6e5  llEqSynchWord                         
1000d6f5  llOneBitSynchWordDiffer               
1000d709  llEqualBytes                          
1000d731  llGtTwentyFourTransitions             
1000d761  llLtTwoChangesInLastSixBits           
1000d795  llEqAlreadyValidAddr                  
1000d7cd  HCI_ReverseBytes                      
1000d8c9  llTimeCompare                         
1000d8f5  llTimeDelta                           
1000d94d  llCalcScaFactor                       
1000d964  SCA                                   
1000d9b0  advChan                               
1000d9b4  advEvt2Cmd                            
1000d9c0  advEvt2State                          
1000d9e1  llTaskError                           
1000d9ec  Fill1_1                               
1000dffc  A3_rw_1                               
1000dffc  romRev                                
1000dffd  __checksum_end                        
1000dffe  A2_rw_1                               
1000dffe  P1_ro_2_1                             
1000dffe  __checksum                            
10014c00  A1_rw                                 
10014c00  __checksum_begin_CommonROM            
10014c01  COMMON_ROM_BASE_ADDR                  
10014c04  P1_ro                                 
10014c05  SCALARMUL_init                        
10014ced  SCALARMUL_core                        
10015019  SCALARMUL_final                       
100150e5  SCALARMUL                             
10015101  SAVEPOINT                             
10015141  GETBIT                                
10015155  GETDIGIT                              
100151a5  GETDIGITL2R                           
10015215  SelectReg                             
10015229  ATOMICPATTERN                         
100154f5  JACADD                                
1001568d  INVERT                                
10015821  SQUAREMULTIPLYWORD                    
1001588c  LUTOPCODE                             
10015894  LUTOPSIGN                             
100158ac  LUTC                                  
100158c4  LUTSE                                 
100158dc  LUTINCI                               
100158f4  LUTJ                                  
1001596c  LUTSTATE                              
100159a9  IMPORTLENGTH                          
100159ad  IMPORTMODULUS                         
100159d1  IMPORTOPERAND                         
10015a11  EXPORTOPERAND                         
10015a35  IMPORTDATA                            
10015a51  SETOPERAND                            
10015a6d  COPY                                  
10015a85  ZERO                                  
10015a91  SETWORD                               
10015a9d  mSET                                  
10015bcd  zSET                                  
10015bd5  mINVK                                 
10015d19  zADD                                  
10015d5d  zSUB                                  
10015de9  zMACC32                               
10015e69  zSUB32                                
10015eb5  zADD32                                
10015f0d  zMULT32                               
10015f81  mMULT                                 
10016551  mADD                                  
1001664d  mSUB                                  
10016749  mOUT                                  
10016975  ssp_KeyInit_Sw                        
10016979  sspAesEncrypt_Sw                      
10016985  sspKeyExpansion_Sw                    
10016a99  sspAesEncryptKeyExp_Sw                
10016af5  sspAesEncryptBasic_Sw                 
10016b79  RoundKey_Sw                           
10016c29  AddRoundKeySubBytes_Sw                
10016c45  ShiftRows_Sw                          
10016c79  MixColumns_Sw                         
10016d05  FFMult_Sw                             
10016d29  sspAesDecrypt_Sw                      
10016da1  InvAddRoundKey_Sw                     
10016dc9  InvRoundKey_Sw                        
10016e8d  InvSubBytes_Sw                        
10016ea1  InvShiftRows_Sw                       
10016ed5  InvMixColumns_Sw                      
10016f58  FFMult2                               
10017058  FFMult3                               
10017158  RCon                                  
10017164  Sbox                                  
10017264  InvSbox                               
10017365  SSP_CCM_Auth_Sw                       
100174fd  SSP_CCM_Encrypt_Sw                    
100175ed  SSP_CTR_Encrypt_Sw                    
1001767d  SSP_CCM_Decrypt_Sw                    
10017771  SSP_CTR_Decrypt_Sw                    
10017839  SSP_CCM_InvAuth_Sw                    
10017895  SSP_CCM_Auth_Encrypt_Sw               
100178f5  SSP_CCM_InvAuth_Decrypt_Sw            
10017959  ECC_allocWorkzone                     
10017961  ECC_setWin                            
10017969  ECDSA_sign                            
10017b01  ECDSA_verif                           
10017dbd  ECC_keyGen                            
10017ded  ECDH_commonKey                        
10017e39  SHA256_updateW                        
10017e75  SHA256_round                          
10017ef1  SHA256_nextState                      
10017f49  SHA256_saveBuffer                     
10017ffd  SHA256_init                           
10018019  SHA256_process                        
10018089  SHA256_final                          
10018129  SHA256_full                           
10018315  RFHAL_AllocRatChan                    
1001833d  RFHAL_FreeRatChan                     
10018369  RFHAL_MapRatChansToInt                
10018391  RFHAL_RegisterRatChanCallback         
100183b9  RFHAL_InitDataQueue                   
100183c5  RFHAL_QueueRFDataEntries              
10018485  RFHAL_FreeNextTxDataEntry             
100184a9  RFHAL_AllocDataEntryQueue             
100184c5  RFHAL_FreeDataEntryQueue              
100184cd  RFHAL_GetNextDataEntry                
100184d1  RFHAL_GetTempDataEntry                
100184d5  RFHAL_NextDataEntryDone               
100184f9  RFHAL_AllocDataEntry                  
10018549  RFHAL_FreeDataEntry                   
10018551  RFHAL_BuildRingBuffer                 
100185e1  RFHAL_BuildDataEntryRingBuffer        
10018669  RFHAL_BuildLinkedBuffer               
10018a19  AesCcm_authEncrypt_Sw                 
10018a35  AesCcm_decryptAuth_Sw                 
10018a99  Aes_encrypt_Sw                        
10018ac5  Aes_decrypt_Sw                        
10018b09  AesCcm_getNumBlocks_Sw                
10018b0c  NIST256_p                             
10018b30  NIST256_r                             
10018b54  NIST256_a                             
10018b78  NIST256_b                             
10018b9c  NIST256_Gx                            
10018bc0  NIST256_Gy                            
10018ced  __exit                                
10018d6c  Fill1                                 
10019ffc  A3_rw                                 
10019ffd  __checksum_end_CommonROM              
10019ffe  A2_rw                                 
10019ffe  P1_ro_2                               
10019ffe  __checksum_CommonROM                  
2000434c  pGapDiscReq                           
20004350  pGapAdvertState                       
20004354  gapState                              
20004355  gattNumConns                          
20004356  gattTaskID                            
20004358  pfnPeripheralConnCBs                  
2000435c  pfnBondMgrCBs                         
20004364  serverInfoTbl                         
20004388  GATTServApp_TaskID                    
20004398  l2capFixedChannels                    
200043c8  l2capId                               
200043c9  smTaskID                              
200043cc  linkDBNumConns                        
20004404  pPairingParams                        
20004408  pfnResponderCBs                       
20004410  pBleEvtMask                           
20004418  pHciEvtMask2                          
20004420  rfEvent                               
20004428  hciTaskID                             
20004429  hciTestTaskID                         
2000442a  hciGapTaskID                          
2000442b  hciL2capTaskID                        
2000442c  hciSmpTaskID                          
2000442d  hciExtTaskID                          
20004430  bleDispatch_TaskID                    
20004431  rspBuf                                
2000446c  timerHead                             
20004470  osal_last_timestamp                   
20004478  ICall_dispatcher                      
2000447c  ICall_enterCriticalSection            
20004480  ICall_leaveCriticalSection            
20004488  tasksEvents                           
200044ac  gapAppTaskID                          
200044ad  gapProfileRole                        
200044ae  gapDeviceAddrMode                     
200044af  gapAutoAdvPrivateAddrChange           
200044b0  gapPrivateAddrChangeTimeout           
20004510  slaveUpdateReq                        
20004518  slaveConnHandle                       
2000451c  pEstLink                              
20004520  pAuthLink                             
20004524  pfnCentralConnCBs                     
20004548  gapTaskID                             
20004549  gapUnwantedTaskID                     
2000454c  pfnPeripheralCBs                      
20004557  reqTaskId                             
200045f4  gattAppTaskID                         
200045f5  appTaskID                             
200045f6  l2capMtuSize                          
20004608  l2capTaskID                           
20004609  l2capNumChannels                      
2000460a  l2capNumDataPkts                      
2000460c  l2capChannels                         
2000462c  llUserConfig                          
20004650  maxPduSize                            
20004651  rfFeModeBias                          
20004652  maxNumTxDataBufs                      
20004654  advInfoExt                            
20004658  rfCmdHandle                           
2000465c  rfHandle                              
20004660  rfDrvTblPtr                           
20004664  llConnectionExt                       
20004668  trngDrvTblPtr                         
2000466c  SysBootMsg                            
20004670  sclkSrc                               
20004674  rfMode                                
20004684  rfParams                              
20004698  rfSetup                               
200046b0  rfObject                              
20004748  assertSubcause                        
20004749  legacyMode                            
2000474c  halAssertCback                        
20004751  osal_entity                           
20004758  osal_qHead                            
2000475c  osal_eventloop_hook                   
20004760  osal_semaphore                        
20004764  osal_tickperiod                       
20004768  osal_max_msecs                        
20004778  baseTaskID                            
2000477c  cbTimers                              
200047f8  OSAL_timeSeconds                      
200047fc  pwrmgr_initialized                    
200047fe  pwrmgr_attribute                      
20004811  gapBond_removeLRUBond                 
2000483a  gapBond_lruBondList                   
200048e8  A4_rw_1                               
200048e8  RAM_BASE_ADDR                         
200048fc  P2_zi_1                               
200048fc  scanDataEntry                         
200049dc  scanDataQueue                         
200049ec  advInfo                               
20004a8c  wlTable                               
20004b10  wlTableScan                           
20004b94  initDataEntry                         
20004bcc  initDataQueue                         
20004bdc  advDataEntry                          
20004c14  advDataQueue                          
20004c24  advCmd                                
20004c6c  ownPublicAddr                         
20004c74  ownRandomAddr                         
20004c7c  ownSavedPublicAddr                    
20004c84  LL_TaskID                             
20004c85  maxTxPwrForDTM                        
20004c86  onePktPerEvt                          
20004c87  numComplPktsLimit                     
20004c88  numComplPktsFlush                     
20004c89  slOverride                            
20004c8a  rxFifoFlowCtrl                        
20004c8b  numTxDataBufs                         
20004c8c  verInfo                               
20004c94  rfCfgAdiVal                           
20004c96  sleepDelay                            
20004c98  buildInfo                             
20004c9c  peerInfo                              
20004ca8  chanMapUpdate                         
20004cb0  llConns                               
20004cb8  llState                               
20004cb9  curTxPowerVal                         
20004cba  numComplPkts                          
20004cbb  fastTxRespTime                        
20004cbc  maxNumConns                           
20004cbe  postRfOperations                      
20004cc0  rssiCorrection                        
20004cc4  taskEndAction                         
20004cf0  initParam                             
20004d14  scanParam                             
20004d38  slvParam                              
20004d58  advParam                              
20004d78  txModemTestCmd                        
20004d94  scanInfo                              
20004db0  initCmd                               
20004dc8  connReqData                           
20004de0  slvCmd                                
20004df8  scanCmd                               
20004e10  scanOutput                            
20004e28  trxTestCmd                            
20004e40  rxModemTestCmd                        
20004e58  initInfo                              
20004e70  connOutput                            
20004e84  rxTestParam                           
20004e98  advOutput                             
20004ea8  txTestParam                           
20004eb8  initOutput                            
20004ec4  rxTestOut                             
20004ed0  deviceFeatureSet                      
20004edc  dtmInfo                               
20004ee8  cachedTRNGdata                        
20004ef4  llTaskList                            
20004f00  pHciEvtMask                           
20004f08  bleEvtMask                            
20004f0a  taskEndStatus                         
20004f0c  rxDataQ                               
20004f10  rxRingBuf                             
20004f14  mstCmd                                
20004f18  mstParam                              
20004f1c  txDataQ                               
20004f20  txTestOut                             
20004f24  ctrlToHostEnable                      
20004f26  numHostBufs                           
20004f28  hciPTMenabled                         
20004f2c  A4_rw                                 
20004f2c  COMMON_RAM_BASE_ADDR                  
20004f40  P2_rw                                 
20004f40  P2_s0                                 
20004f40  win                                   
20004f44  workzone                              
20004f48  data_p                                
20004f4c  data_r                                
20004f50  data_a                                
20004f54  inScalar                              
20004f58  inPointX                              
20004f5c  inPointY                              
20004f60  outPointX                             
20004f64  outPointY                             
20004f68  SCAL                                  
20004f6c  EXPX                                  
20004f70  EXPY                                  
20004f74  EXPZ                                  
20004f78  EXPW                                  
20004f7c  ACCX                                  
20004f80  ACCY                                  
20004f84  ACCZ                                  
20004f88  TMP1                                  
20004f8c  TMP2                                  
20004f90  TMP3                                  
20004f94  TMP4                                  
20004f98  TMP5                                  
20004f9c  TMP6                                  
20004fa0  data_Gx                               
20004fa4  data_Gy                               
20004fa8  data_b                                
20004fac  P2_zi                                 
20004fac  ratChanInfo                           
20004fcc  fwInfoCmd                             
20004fd8  MSBMOD                                
20004fdc  aux64                                 
20004fe4  MOD                                   
20004fe8  LEN                                   
20004ffc  pSspAesEncrypt_Sw                     
ffffffff  __binit__                             
ffffffff  __c_args__                            
ffffffff  binit                                 
UNDEFED   SHT$$INIT_ARRAY$$Base                 
UNDEFED   SHT$$INIT_ARRAY$$Limit                

[1176 symbols]
